L251 LINKER/LOCATER V4.25                                                               12/13/2018  16:28:40  PAGE 1


L251 LINKER/LOCATER V4.25, INVOKED BY:
C:\KEIL\C251\BIN\L251.EXE .\obj\welcome.obj, .\obj\showLogoFuncs.obj, ..\..\..\psp_rel\lib\LIBC.LIB, ..\..\..\psp_rel\li
>> b\APDftSeg.LIB (?C_START??), ..\..\..\psp_rel\lib\actos30apiH.LIB, .\obj\Hdrv_HardInit.obj, .\obj\Hdrv_HardDeal.obj, 
>> .\obj\Sdrv_LEDDisplay.obj TO .\obj\welcome NOOVERLAY NOJMPTAB NODEFAULTLIBRARY CLASSES (ECODE (0X800000-0XFFFFFF)) CL
>> ASSES (HCONST (0X800000-0XFFFFFF)) SEGMENTS (?PR?CODEDISPSTART (0XFF2000), CODEDISPSTART, ?PR?HARD_INIT, ?PR?HARD_DEA
>> L, ?HC?SDRV_DISPLAY, ?PR?SDRV_DISPLAY, ?HC?CODEDISPSTART, C_RESERVE0 (^0XFF24FF)) SEGMENTS (?ED?CODEDISPSTART (0XA80)
>> , D_RESERVE0 (^0XB2F))


CPU MODE:     251 SOURCE MODE
MEMORY MODEL: XSMALL


INPUT MODULES INCLUDED:
  .\obj\welcome.obj (CODEDISPSTART)
         COMMENT TYPE 0: C251 V4.55
  .\obj\showLogoFuncs.obj (showLogoFuncs)
         COMMENT TYPE 0: A251 V4.52b
  ..\..\..\psp_rel\lib\APDftSeg.LIB (?C_START??)
         COMMENT TYPE 0: A251 V4.52b
  .\obj\Hdrv_HardInit.obj (HARD_INIT)
         COMMENT TYPE 0: C251 V4.55
  .\obj\Hdrv_HardDeal.obj (HARD_DEAL)
         COMMENT TYPE 0: C251 V4.55
  .\obj\Sdrv_LEDDisplay.obj (SDRV_DISPLAY)
         COMMENT TYPE 0: C251 V4.55


ACTIVE MEMORY CLASSES OF MODULE:  .\obj\welcome (CODEDISPSTART)

BASE        START       END         USED      MEMORY CLASS
==========================================================
000000H     800000H     FFFFFFH     000406H   ECODE
000000H     800000H     FFFFFFH     000033H   HCONST
000000H     000000H     00FFFFH     000042H   EDATA
FF0000H     FF0000H     FFFFFFH     000001H   CODE


MEMORY MAP OF MODULE:  .\obj\welcome (CODEDISPSTART)


START     STOP      LENGTH    ALIGN  RELOC    MEMORY CLASS   SEGMENT NAME
=========================================================================
000A80H   000A81H   000002H   BYTE   UNIT     EDATA          ?ED?CODEDISPSTART
000A82H   000B2EH   0000ADH   ---    ---      **GAP**
000B2FH   000B2FH   000001H   BYTE   AT..     EDATA          D_RESERVE0
000B30H   00F800H   00ECD1H   ---    ---      **GAP**
00F801H   00F801H   000001H   BYTE   AT..     EDATA          D_RESERVE1
00F802H   00F802H   000001H   BYTE   AT..     EDATA          D_RESERVE2
00F803H   00F803H   000001H   BYTE   AT..     EDATA          D_RESERVE3
00F804H   00F804H   000001H   BYTE   AT..     EDATA          D_RESERVE4
00F805H   00F805H   000001H   BYTE   AT..     EDATA          D_RESERVE5
00F806H   00F806H   000001H   BYTE   AT..     EDATA          D_RESERVE6
00F807H   00F807H   000001H   BYTE   AT..     EDATA          D_RESERVE7
00F808H   00F808H   000001H   BYTE   AT..     EDATA          D_RESERVE8
00F809H   00F809H   000001H   BYTE   AT..     EDATA          D_RESERVE9
00F80AH   00F80AH   000001H   BYTE   AT..     EDATA          D_RESERVE10
00F80BH   00F80BH   000001H   BYTE   AT..     EDATA          D_RESERVE11
00F80CH   00F80CH   000001H   BYTE   AT..     EDATA          D_RESERVE12
00F80DH   00F80DH   000001H   BYTE   AT..     EDATA          D_RESERVE13
00F80EH   00F80EH   000001H   BYTE   AT..     EDATA          D_RESERVE14
00F80FH   00F80FH   000001H   BYTE   AT..     EDATA          D_RESERVE15
00F810H   00F810H   000001H   BYTE   AT..     EDATA          D_RESERVE16
00F811H   00F811H   000001H   BYTE   AT..     EDATA          D_RESERVE17
00F812H   00F812H   000001H   BYTE   AT..     EDATA          D_RESERVE18
00F813H   00F813H   000001H   BYTE   AT..     EDATA          D_RESERVE19
L251 LINKER/LOCATER V4.25                                                             12/13/2018  16:28:40  PAGE 2


00F814H   00F814H   000001H   BYTE   AT..     EDATA          D_RESERVE20
00F815H   00F815H   000001H   BYTE   AT..     EDATA          D_RESERVE21
00F816H   00F816H   000001H   BYTE   AT..     EDATA          D_RESERVE22
00F817H   00F817H   000001H   BYTE   AT..     EDATA          D_RESERVE23
00F818H   00F818H   000001H   BYTE   AT..     EDATA          D_RESERVE24
00F819H   00F819H   000001H   BYTE   AT..     EDATA          D_RESERVE25
00F81AH   00F81AH   000001H   BYTE   AT..     EDATA          D_RESERVE26
00F81BH   00F81BH   000001H   BYTE   AT..     EDATA          D_RESERVE27
00F81CH   00F81CH   000001H   BYTE   AT..     EDATA          D_RESERVE28
00F81DH   00F81DH   000001H   BYTE   AT..     EDATA          D_RESERVE29
00F81EH   00F81EH   000001H   BYTE   AT..     EDATA          D_RESERVE30
00F81FH   00F81FH   000001H   BYTE   AT..     EDATA          D_RESERVE31
00F820H   00F820H   000001H   BYTE   AT..     EDATA          D_RESERVE32
00F821H   00F821H   000001H   BYTE   AT..     EDATA          D_RESERVE33
00F822H   00F822H   000001H   BYTE   AT..     EDATA          D_RESERVE34
00F823H   00F823H   000001H   BYTE   AT..     EDATA          D_RESERVE35
00F824H   00F824H   000001H   BYTE   AT..     EDATA          D_RESERVE36
00F825H   00F825H   000001H   BYTE   AT..     EDATA          D_RESERVE37
00F826H   00F826H   000001H   BYTE   AT..     EDATA          D_RESERVE38
00F827H   00F827H   000001H   BYTE   AT..     EDATA          D_RESERVE39
00F828H   00F828H   000001H   BYTE   AT..     EDATA          D_RESERVE40
00F829H   00F829H   000001H   BYTE   AT..     EDATA          D_RESERVE41
00F82AH   00F82AH   000001H   BYTE   AT..     EDATA          D_RESERVE42
00F82BH   00F82BH   000001H   BYTE   AT..     EDATA          D_RESERVE43
00F82CH   00F82CH   000001H   BYTE   AT..     EDATA          D_RESERVE44
00F82DH   00F82DH   000001H   BYTE   AT..     EDATA          D_RESERVE45
00F82EH   00F82EH   000001H   BYTE   AT..     EDATA          D_RESERVE46
00F82FH   00F82FH   000001H   BYTE   AT..     EDATA          D_RESERVE47
00F830H   00F830H   000001H   BYTE   AT..     EDATA          D_RESERVE48
00F831H   00F831H   000001H   BYTE   AT..     EDATA          D_RESERVE49
00F832H   00F832H   000001H   BYTE   AT..     EDATA          D_RESERVE50
00F833H   00F833H   000001H   BYTE   AT..     EDATA          D_RESERVE51
00F834H   00F834H   000001H   BYTE   AT..     EDATA          D_RESERVE52
00F835H   00F835H   000001H   BYTE   AT..     EDATA          D_RESERVE53
00F836H   00F836H   000001H   BYTE   AT..     EDATA          D_RESERVE54
00F837H   00F837H   000001H   BYTE   AT..     EDATA          D_RESERVE55
00F838H   00F838H   000001H   BYTE   AT..     EDATA          D_RESERVE56
00F839H   00F839H   000001H   BYTE   AT..     EDATA          D_RESERVE57
00F83AH   00F83AH   000001H   BYTE   AT..     EDATA          D_RESERVE58
00F83BH   00F83BH   000001H   BYTE   AT..     EDATA          D_RESERVE59
00F83CH   00F83CH   000001H   BYTE   AT..     EDATA          D_RESERVE60
00F83DH   00F83DH   000001H   BYTE   AT..     EDATA          D_RESERVE61
00F83EH   00F83EH   000001H   BYTE   AT..     EDATA          D_RESERVE62
00F83FH   00F83FH   000001H   BYTE   AT..     EDATA          D_RESERVE63
00F840H   FF1FFFH   FE27C0H   ---    ---      **GAP**
FF2000H   FF2115H   000116H   BYTE   INSEG    ECODE          ?PR?CODEDISPSTART
FF2116H   FF211CH   000007H   BYTE   UNIT     ECODE          CODEDISPSTART
FF211DH   FF214EH   000032H   BYTE   INSEG    ECODE          ?PR?HARD_INIT
FF214FH   FF21BEH   000070H   BYTE   INSEG    ECODE          ?PR?HARD_DEAL
FF21BFH   FF21ECH   00002EH   BYTE   UNIT     HCONST         ?HC?SDRV_DISPLAY
FF21EDH   FF2373H   000187H   BYTE   INSEG    ECODE          ?PR?SDRV_DISPLAY
FF2374H   FF2378H   000005H   BYTE   UNIT     HCONST         ?HC?CODEDISPSTART
FF2379H   FF24FEH   000186H   ---    ---      **GAP**
FF24FFH   FF24FFH   000001H   BYTE   AT..     ECODE          C_RESERVE0
FF2500H   FF93FFH   006F00H   ---    ---      **GAP**
FF9400H   FF9400H   000001H   BYTE   AT..     CODE           ?C_C51STARTUP
FF9401H   FF9401H   000001H   ---    ---      **GAP**
FF9402H   FF9402H   000001H   BYTE   AT..     ECODE          C_RESERVE1
FF9403H   FF9403H   000001H   BYTE   AT..     ECODE          C_RESERVE2
FF9404H   FF9404H   000001H   BYTE   AT..     ECODE          C_RESERVE3
FF9405H   FF9405H   000001H   BYTE   AT..     ECODE          C_RESERVE4
FF9406H   FF9406H   000001H   BYTE   AT..     ECODE          C_RESERVE5
FF9407H   FF9407H   000001H   BYTE   AT..     ECODE          C_RESERVE6
FF9408H   FF9408H   000001H   BYTE   AT..     ECODE          C_RESERVE7
FF9409H   FF9409H   000001H   BYTE   AT..     ECODE          C_RESERVE8
L251 LINKER/LOCATER V4.25                                                             12/13/2018  16:28:40  PAGE 3


FF940AH   FF940AH   000001H   BYTE   AT..     ECODE          C_RESERVE9
FF940BH   FF940BH   000001H   BYTE   AT..     ECODE          C_RESERVE10
FF940CH   FF940CH   000001H   BYTE   AT..     ECODE          C_RESERVE11
FF940DH   FF940DH   000001H   BYTE   AT..     ECODE          C_RESERVE12
FF940EH   FF940EH   000001H   BYTE   AT..     ECODE          C_RESERVE13
FF940FH   FF940FH   000001H   BYTE   AT..     ECODE          C_RESERVE14
FF9410H   FF9410H   000001H   BYTE   AT..     ECODE          C_RESERVE15
FF9411H   FF9411H   000001H   BYTE   AT..     ECODE          C_RESERVE16
FF9412H   FF9412H   000001H   BYTE   AT..     ECODE          C_RESERVE17
FF9413H   FF9413H   000001H   BYTE   AT..     ECODE          C_RESERVE18
FF9414H   FF9414H   000001H   BYTE   AT..     ECODE          C_RESERVE19
FF9415H   FF9415H   000001H   BYTE   AT..     ECODE          C_RESERVE20
FF9416H   FF9416H   000001H   BYTE   AT..     ECODE          C_RESERVE21
FF9417H   FF9417H   000001H   BYTE   AT..     ECODE          C_RESERVE22
FF9418H   FF9418H   000001H   BYTE   AT..     ECODE          C_RESERVE23
FF9419H   FF9419H   000001H   BYTE   AT..     ECODE          C_RESERVE24
FF941AH   FF941AH   000001H   BYTE   AT..     ECODE          C_RESERVE25
FF941BH   FF941BH   000001H   BYTE   AT..     ECODE          C_RESERVE26
FF941CH   FF941CH   000001H   BYTE   AT..     ECODE          C_RESERVE27
FF941DH   FF941DH   000001H   BYTE   AT..     ECODE          C_RESERVE28
FF941EH   FF941EH   000001H   BYTE   AT..     ECODE          C_RESERVE29
FF941FH   FF941FH   000001H   BYTE   AT..     ECODE          C_RESERVE30
FF9420H   FF9420H   000001H   BYTE   AT..     ECODE          C_RESERVE31
FF9421H   FF9421H   000001H   BYTE   AT..     ECODE          C_RESERVE32
FF9422H   FF9422H   000001H   BYTE   AT..     ECODE          C_RESERVE33
FF9423H   FF9423H   000001H   BYTE   AT..     ECODE          C_RESERVE34
FF9424H   FF9424H   000001H   BYTE   AT..     ECODE          C_RESERVE35
FF9425H   FF9425H   000001H   BYTE   AT..     ECODE          C_RESERVE36
FF9426H   FF9426H   000001H   BYTE   AT..     ECODE          C_RESERVE37
FF9427H   FF9427H   000001H   BYTE   AT..     ECODE          C_RESERVE38
FF9428H   FF9428H   000001H   BYTE   AT..     ECODE          C_RESERVE39
FF9429H   FF9429H   000001H   BYTE   AT..     ECODE          C_RESERVE40
FF942AH   FF942AH   000001H   BYTE   AT..     ECODE          C_RESERVE41
FF942BH   FF942BH   000001H   BYTE   AT..     ECODE          C_RESERVE42
FF942CH   FF942CH   000001H   BYTE   AT..     ECODE          C_RESERVE43
FF942DH   FF942DH   000001H   BYTE   AT..     ECODE          C_RESERVE44
FF942EH   FF942EH   000001H   BYTE   AT..     ECODE          C_RESERVE45
FF942FH   FF942FH   000001H   BYTE   AT..     ECODE          C_RESERVE46
FF9430H   FF9430H   000001H   BYTE   AT..     ECODE          C_RESERVE47
FF9431H   FF9431H   000001H   BYTE   AT..     ECODE          C_RESERVE48
FF9432H   FF9432H   000001H   BYTE   AT..     ECODE          C_RESERVE49
FF9433H   FF9433H   000001H   BYTE   AT..     ECODE          C_RESERVE50
FF9434H   FF9434H   000001H   BYTE   AT..     ECODE          C_RESERVE51
FF9435H   FF9435H   000001H   BYTE   AT..     ECODE          C_RESERVE52
FF9436H   FF9436H   000001H   BYTE   AT..     ECODE          C_RESERVE53
FF9437H   FF9437H   000001H   BYTE   AT..     ECODE          C_RESERVE54
FF9438H   FF9438H   000001H   BYTE   AT..     ECODE          C_RESERVE55
FF9439H   FF9439H   000001H   BYTE   AT..     ECODE          C_RESERVE56
FF943AH   FF943AH   000001H   BYTE   AT..     ECODE          C_RESERVE57
FF943BH   FF943BH   000001H   BYTE   AT..     ECODE          C_RESERVE58
FF943CH   FF943CH   000001H   BYTE   AT..     ECODE          C_RESERVE59
FF943DH   FF943DH   000001H   BYTE   AT..     ECODE          C_RESERVE60
FF943EH   FF943EH   000001H   BYTE   AT..     ECODE          C_RESERVE61
FF943FH   FF943FH   000001H   BYTE   AT..     ECODE          C_RESERVE62
FF9440H   FF9440H   000001H   BYTE   AT..     ECODE          C_RESERVE63
FF9441H   FF9441H   000001H   BYTE   AT..     ECODE          C_RESERVE64
FF9442H   FF9442H   000001H   BYTE   AT..     ECODE          C_RESERVE65
FF9443H   FF9443H   000001H   BYTE   AT..     ECODE          C_RESERVE66
FF9444H   FF9444H   000001H   BYTE   AT..     ECODE          C_RESERVE67
FF9445H   FF9445H   000001H   BYTE   AT..     ECODE          C_RESERVE68
FF9446H   FF9446H   000001H   BYTE   AT..     ECODE          C_RESERVE69
FF9447H   FF9447H   000001H   BYTE   AT..     ECODE          C_RESERVE70
FF9448H   FF9448H   000001H   BYTE   AT..     ECODE          C_RESERVE71
FF9449H   FF9449H   000001H   BYTE   AT..     ECODE          C_RESERVE72
FF944AH   FF944AH   000001H   BYTE   AT..     ECODE          C_RESERVE73
L251 LINKER/LOCATER V4.25                                                             12/13/2018  16:28:40  PAGE 4


FF944BH   FF944BH   000001H   BYTE   AT..     ECODE          C_RESERVE74
FF944CH   FF944CH   000001H   BYTE   AT..     ECODE          C_RESERVE75
FF944DH   FF944DH   000001H   BYTE   AT..     ECODE          C_RESERVE76
FF944EH   FF944EH   000001H   BYTE   AT..     ECODE          C_RESERVE77
FF944FH   FF944FH   000001H   BYTE   AT..     ECODE          C_RESERVE78
FF9450H   FF9450H   000001H   BYTE   AT..     ECODE          C_RESERVE79
FF9451H   FF9451H   000001H   BYTE   AT..     ECODE          C_RESERVE80
FF9452H   FF9452H   000001H   BYTE   AT..     ECODE          C_RESERVE81
FF9453H   FF9453H   000001H   BYTE   AT..     ECODE          C_RESERVE82
FF9454H   FF9454H   000001H   BYTE   AT..     ECODE          C_RESERVE83
FF9455H   FF9455H   000001H   BYTE   AT..     ECODE          C_RESERVE84
FF9456H   FF9456H   000001H   BYTE   AT..     ECODE          C_RESERVE85
FF9457H   FF9457H   000001H   BYTE   AT..     ECODE          C_RESERVE86
FF9458H   FF9458H   000001H   BYTE   AT..     ECODE          C_RESERVE87
FF9459H   FF9459H   000001H   BYTE   AT..     ECODE          C_RESERVE88
FF945AH   FF945AH   000001H   BYTE   AT..     ECODE          C_RESERVE89
FF945BH   FF945BH   000001H   BYTE   AT..     ECODE          C_RESERVE90
FF945CH   FF945CH   000001H   BYTE   AT..     ECODE          C_RESERVE91
FF945DH   FF945DH   000001H   BYTE   AT..     ECODE          C_RESERVE92
FF945EH   FF945EH   000001H   BYTE   AT..     ECODE          C_RESERVE93
FF945FH   FF945FH   000001H   BYTE   AT..     ECODE          C_RESERVE94
FF9460H   FF9460H   000001H   BYTE   AT..     ECODE          C_RESERVE95
FF9461H   FF9461H   000001H   BYTE   AT..     ECODE          C_RESERVE96
FF9462H   FF9462H   000001H   BYTE   AT..     ECODE          C_RESERVE97
FF9463H   FF9463H   000001H   BYTE   AT..     ECODE          C_RESERVE98
FF9464H   FF9464H   000001H   BYTE   AT..     ECODE          C_RESERVE99
FF9465H   FF9465H   000001H   BYTE   AT..     ECODE          C_RESERVE100
FF9466H   FF9466H   000001H   BYTE   AT..     ECODE          C_RESERVE101
FF9467H   FF9467H   000001H   BYTE   AT..     ECODE          C_RESERVE102
FF9468H   FF9468H   000001H   BYTE   AT..     ECODE          C_RESERVE103
FF9469H   FF9469H   000001H   BYTE   AT..     ECODE          C_RESERVE104
FF946AH   FF946AH   000001H   BYTE   AT..     ECODE          C_RESERVE105
FF946BH   FF946BH   000001H   BYTE   AT..     ECODE          C_RESERVE106
FF946CH   FF946CH   000001H   BYTE   AT..     ECODE          C_RESERVE107
FF946DH   FF946DH   000001H   BYTE   AT..     ECODE          C_RESERVE108
FF946EH   FF946EH   000001H   BYTE   AT..     ECODE          C_RESERVE109
FF946FH   FF946FH   000001H   BYTE   AT..     ECODE          C_RESERVE110
FF9470H   FF9470H   000001H   BYTE   AT..     ECODE          C_RESERVE111
FF9471H   FF9471H   000001H   BYTE   AT..     ECODE          C_RESERVE112
FF9472H   FF9472H   000001H   BYTE   AT..     ECODE          C_RESERVE113
FF9473H   FF9473H   000001H   BYTE   AT..     ECODE          C_RESERVE114
FF9474H   FF9474H   000001H   BYTE   AT..     ECODE          C_RESERVE115
FF9475H   FF9475H   000001H   BYTE   AT..     ECODE          C_RESERVE116
FF9476H   FF9476H   000001H   BYTE   AT..     ECODE          C_RESERVE117
FF9477H   FF9477H   000001H   BYTE   AT..     ECODE          C_RESERVE118
FF9478H   FF9478H   000001H   BYTE   AT..     ECODE          C_RESERVE119
FF9479H   FF9479H   000001H   BYTE   AT..     ECODE          C_RESERVE120
FF947AH   FF947AH   000001H   BYTE   AT..     ECODE          C_RESERVE121
FF947BH   FF947BH   000001H   BYTE   AT..     ECODE          C_RESERVE122
FF947CH   FF947CH   000001H   BYTE   AT..     ECODE          C_RESERVE123
FF947DH   FF947DH   000001H   BYTE   AT..     ECODE          C_RESERVE124
FF947EH   FF947EH   000001H   BYTE   AT..     ECODE          C_RESERVE125
FF947FH   FF947FH   000001H   BYTE   AT..     ECODE          C_RESERVE126
FF9480H   FF9480H   000001H   BYTE   AT..     ECODE          C_RESERVE127
FF9481H   FF9481H   000001H   BYTE   AT..     ECODE          C_RESERVE128
FF9482H   FF9482H   000001H   BYTE   AT..     ECODE          C_RESERVE129
FF9483H   FF9483H   000001H   BYTE   AT..     ECODE          C_RESERVE130
FF9484H   FF9484H   000001H   BYTE   AT..     ECODE          C_RESERVE131
FF9485H   FF9485H   000001H   BYTE   AT..     ECODE          C_RESERVE132
FF9486H   FF9486H   000001H   BYTE   AT..     ECODE          C_RESERVE133
FF9487H   FF9487H   000001H   BYTE   AT..     ECODE          C_RESERVE134
FF9488H   FF9488H   000001H   BYTE   AT..     ECODE          C_RESERVE135
FF9489H   FF9489H   000001H   BYTE   AT..     ECODE          C_RESERVE136
FF948AH   FF948AH   000001H   BYTE   AT..     ECODE          C_RESERVE137
FF948BH   FF948BH   000001H   BYTE   AT..     ECODE          C_RESERVE138
L251 LINKER/LOCATER V4.25                                                             12/13/2018  16:28:40  PAGE 5


FF948CH   FF948CH   000001H   BYTE   AT..     ECODE          C_RESERVE139
FF948DH   FF948DH   000001H   BYTE   AT..     ECODE          C_RESERVE140
FF948EH   FF948EH   000001H   BYTE   AT..     ECODE          C_RESERVE141
FF948FH   FF948FH   000001H   BYTE   AT..     ECODE          C_RESERVE142
FF9490H   FF9490H   000001H   BYTE   AT..     ECODE          C_RESERVE143
FF9491H   FF9491H   000001H   BYTE   AT..     ECODE          C_RESERVE144
FF9492H   FF9492H   000001H   BYTE   AT..     ECODE          C_RESERVE145
FF9493H   FF9493H   000001H   BYTE   AT..     ECODE          C_RESERVE146
FF9494H   FF9494H   000001H   BYTE   AT..     ECODE          C_RESERVE147
FF9495H   FF9495H   000001H   BYTE   AT..     ECODE          C_RESERVE148
FF9496H   FF9496H   000001H   BYTE   AT..     ECODE          C_RESERVE149
FF9497H   FF9497H   000001H   BYTE   AT..     ECODE          C_RESERVE150
FF9498H   FF9498H   000001H   BYTE   AT..     ECODE          C_RESERVE151
FF9499H   FF9499H   000001H   BYTE   AT..     ECODE          C_RESERVE152
FF949AH   FF949AH   000001H   BYTE   AT..     ECODE          C_RESERVE153
FF949BH   FF949BH   000001H   BYTE   AT..     ECODE          C_RESERVE154
FF949CH   FF949CH   000001H   BYTE   AT..     ECODE          C_RESERVE155
FF949DH   FF949DH   000001H   BYTE   AT..     ECODE          C_RESERVE156
FF949EH   FF949EH   000001H   BYTE   AT..     ECODE          C_RESERVE157
FF949FH   FF949FH   000001H   BYTE   AT..     ECODE          C_RESERVE158
FF94A0H   FF94A0H   000001H   BYTE   AT..     ECODE          C_RESERVE159
FF94A1H   FF94A1H   000001H   BYTE   AT..     ECODE          C_RESERVE160
FF94A2H   FF94A2H   000001H   BYTE   AT..     ECODE          C_RESERVE161
FF94A3H   FF94A3H   000001H   BYTE   AT..     ECODE          C_RESERVE162
FF94A4H   FF94A4H   000001H   BYTE   AT..     ECODE          C_RESERVE163
FF94A5H   FF94A5H   000001H   BYTE   AT..     ECODE          C_RESERVE164
FF94A6H   FF94A6H   000001H   BYTE   AT..     ECODE          C_RESERVE165
FF94A7H   FF94A7H   000001H   BYTE   AT..     ECODE          C_RESERVE166
FF94A8H   FF94A8H   000001H   BYTE   AT..     ECODE          C_RESERVE167
FF94A9H   FF94A9H   000001H   BYTE   AT..     ECODE          C_RESERVE168
FF94AAH   FF94AAH   000001H   BYTE   AT..     ECODE          C_RESERVE169
FF94ABH   FF94ABH   000001H   BYTE   AT..     ECODE          C_RESERVE170
FF94ACH   FF94ACH   000001H   BYTE   AT..     ECODE          C_RESERVE171
FF94ADH   FF94ADH   000001H   BYTE   AT..     ECODE          C_RESERVE172
FF94AEH   FF94AEH   000001H   BYTE   AT..     ECODE          C_RESERVE173
FF94AFH   FF94AFH   000001H   BYTE   AT..     ECODE          C_RESERVE174
FF94B0H   FF94B0H   000001H   BYTE   AT..     ECODE          C_RESERVE175
FF94B1H   FF94B1H   000001H   BYTE   AT..     ECODE          C_RESERVE176
FF94B2H   FF94B2H   000001H   BYTE   AT..     ECODE          C_RESERVE177
FF94B3H   FF94B3H   000001H   BYTE   AT..     ECODE          C_RESERVE178
FF94B4H   FF94B4H   000001H   BYTE   AT..     ECODE          C_RESERVE179
FF94B5H   FF94B5H   000001H   BYTE   AT..     ECODE          C_RESERVE180
FF94B6H   FF94B6H   000001H   BYTE   AT..     ECODE          C_RESERVE181
FF94B7H   FF94B7H   000001H   BYTE   AT..     ECODE          C_RESERVE182
FF94B8H   FF94B8H   000001H   BYTE   AT..     ECODE          C_RESERVE183
FF94B9H   FF94B9H   000001H   BYTE   AT..     ECODE          C_RESERVE184
FF94BAH   FF94BAH   000001H   BYTE   AT..     ECODE          C_RESERVE185
FF94BBH   FF94BBH   000001H   BYTE   AT..     ECODE          C_RESERVE186
FF94BCH   FF94BCH   000001H   BYTE   AT..     ECODE          C_RESERVE187
FF94BDH   FF94BDH   000001H   BYTE   AT..     ECODE          C_RESERVE188
FF94BEH   FF94BEH   000001H   BYTE   AT..     ECODE          C_RESERVE189
FF94BFH   FF94BFH   000001H   BYTE   AT..     ECODE          C_RESERVE190
FF94C0H   FF94C0H   000001H   BYTE   AT..     ECODE          C_RESERVE191



PUBLIC SYMBOLS OF MODULE:  .\obj\welcome (CODEDISPSTART)


      VALUE       CLASS    TYPE      PUBLIC SYMBOL NAME
      =================================================
      000000FFH   NUMBER   ---       ?C?CODESEG
      00FF9400H   CODE     ---       ?C?INITEDATA
      00FF9400H   CODE     ---       ?C?INITHDATA
      00FF9400H   CODE     ---       ?C?STARTUP?
L251 LINKER/LOCATER V4.25                                                             12/13/2018  16:28:40  PAGE 6


      00000001H   NUMBER   ---       ?C?XDATASEG
      00FF9400H   CODE     ---       ?C_STARTUP?
*SFR* 000000D0H.6 DATA     BIT       AC
*SFR* 000000E0H   DATA     BYTE      ACC
*SFR* 000000D3H   DATA     BYTE      AD_Select
*SFR* 000000DCH   DATA     BYTE      AD_Select1
*SFR* 000000F0H   DATA     BYTE      B
*SFR* 000000C8H.1 DATA     BIT       C_T2
*SFR* 000000FAH   DATA     BYTE      CCAP0H
*SFR* 000000EAH   DATA     BYTE      CCAP0L
*SFR* 000000FBH   DATA     BYTE      CCAP1H
*SFR* 000000EBH   DATA     BYTE      CCAP1L
*SFR* 000000FCH   DATA     BYTE      CCAP2H
*SFR* 000000ECH   DATA     BYTE      CCAP2L
*SFR* 000000FDH   DATA     BYTE      CCAP3H
*SFR* 000000EDH   DATA     BYTE      CCAP3L
*SFR* 000000FEH   DATA     BYTE      CCAP4H
*SFR* 000000EEH   DATA     BYTE      CCAP4L
*SFR* 000000DAH   DATA     BYTE      CCAPM0
*SFR* 000000DBH   DATA     BYTE      CCAPM1
*SFR* 000000DCH   DATA     BYTE      CCAPM2
*SFR* 000000DDH   DATA     BYTE      CCAPM3
*SFR* 000000DEH   DATA     BYTE      CCAPM4
*SFR* 000000D8H   DATA     BIT       CCF0
*SFR* 000000D8H.1 DATA     BIT       CCF1
*SFR* 000000D8H.2 DATA     BIT       CCF2
*SFR* 000000D8H.3 DATA     BIT       CCF3
*SFR* 000000D8H.4 DATA     BIT       CCF4
*SFR* 000000D8H   DATA     BYTE      CCON
      00000A80H   EDATA    BYTE      cesel
*SFR* 00000090H.3 DATA     BIT       CEX0
*SFR* 00000090H.4 DATA     BIT       CEX1
*SFR* 00000090H.5 DATA     BIT       CEX2
*SFR* 00000090H.6 DATA     BIT       CEX3
*SFR* 00000090H.7 DATA     BIT       CEX4
*SFR* 000000D8H.7 DATA     BIT       CF
*SFR* 000000F9H   DATA     BYTE      CH
      00FF205BH   ECODE    ---       charge_pump_ctl??
*SFR* 000000E9H   DATA     BYTE      CL
*SFR* 000000AAH   DATA     BYTE      CLKENCTL1
*SFR* 000000ABH   DATA     BYTE      CLKENCTL2
*SFR* 000000D9H   DATA     BYTE      CMOD
      00000A81H   EDATA    BYTE      com_num
*SFR* 00000097H   DATA     BYTE      CP_CTL0
*SFR* 00000098H   DATA     BYTE      CP_CTL1
*SFR* 000000C8H   DATA     BIT       CP_RL2
*SFR* 000000D8H.6 DATA     BIT       CR
*SFR* 000000D0H.7 DATA     BIT       CY
      00FF20D7H   ECODE    ---       Delay_ms??
      00FF2000H   ECODE    ---       DispStarting??
*SFR* 00000094H   DATA     BYTE      DPDMCTRL
*SFR* 00000083H   DATA     BYTE      DPH
*SFR* 00000082H   DATA     BYTE      DPL
*SFR* 00000084H   DATA     BYTE      DPXL
*SFR* 000000A8H.7 DATA     BIT       EA
*SFR* 000000A8H.6 DATA     BIT       EC
*SFR* 00000090H.2 DATA     BIT       ECI
*SFR* 000000A8H.4 DATA     BIT       ES
*SFR* 000000A8H.1 DATA     BIT       ET0
*SFR* 000000A8H.3 DATA     BIT       ET1
*SFR* 000000A8H.5 DATA     BIT       ET2
*SFR* 000000A8H   DATA     BIT       EX0
*SFR* 000000A8H.2 DATA     BIT       EX1
*SFR* 000000C8H.3 DATA     BIT       EXEN2
*SFR* 000000C8H.6 DATA     BIT       EXF2
L251 LINKER/LOCATER V4.25                                                             12/13/2018  16:28:40  PAGE 7


*SFR* 000000D0H.5 DATA     BIT       F0
*SFR* 00000098H.7 DATA     BIT       FE
      00FF2086H   ECODE    ---       GetUsbCableStatus??
*SFR* 000000AFH   DATA     BYTE      GPIOCDAT
*SFR* 000000AEH   DATA     BYTE      GPIOCINEN
*SFR* 000000ADH   DATA     BYTE      GPIOCOUTEN
      00FF214FH   ECODE    ---       Hdrv_DataSend??
      00FF214EH   ECODE    ---       Hdrv_HardInit??
      00FF2137H   ECODE    ---       Hdrv_SetLED??
      00FF211DH   ECODE    ---       Hdrv_SetMfpToEmif??
      00FF21E6H   HCONST   ---       iconshowval
*SFR* 000000A8H   DATA     BYTE      IE0
*SFR* 00000088H.1 DATA     BIT       IE0_
*SFR* 000000B1H   DATA     BYTE      IE1
*SFR* 00000088H.3 DATA     BIT       IE1_
*SFR* 000000B0H.2 DATA     BIT       INT0
*SFR* 000000B0H.3 DATA     BIT       INT1
*SFR* 000000B7H   DATA     BYTE      IPH0
*SFR* 000000B8H   DATA     BYTE      IPL0
*SFR* 00000088H   DATA     BIT       IT0
*SFR* 00000088H.2 DATA     BIT       IT1
*SFR* 0000008BH   DATA     BYTE      LCD_DATA0
*SFR* 0000008CH   DATA     BYTE      LCD_DATA1
*SFR* 0000008DH   DATA     BYTE      LCD_DATA2
*SFR* 00000090H   DATA     BYTE      LCD_DATA3
*SFR* 00000091H   DATA     BYTE      LCD_DATA4
*SFR* 0000008AH   DATA     BYTE      LCD_MODE
      00FF21BFH   HCONST   ---       LED_com_add
*SFR* 000000C9H   DATA     BYTE      LED_SEGLCDCLKCTL
      00FF2069H   ECODE    ---       mcu_enter_sleep??
*SFR* 000000C9H   DATA     BYTE      MFP_CTL1
*SFR* 000000CAH   DATA     BYTE      MFP_CTL2
*SFR* 000000CBH   DATA     BYTE      MFP_CTL3
*SFR* 000000CCH   DATA     BYTE      MFP_CTL4
*SFR* 000000CDH   DATA     BYTE      MFP_CTL5
*SFR* 00000086H   DATA     BYTE      MRCR1
*SFR* 0000009FH   DATA     BYTE      MRCR3
      00FF21C3H   HCONST   ---       numbershowval
*SFR* 000000D0H.2 DATA     BIT       OV
*SFR* 000000D0H   DATA     BIT       P
*SFR* 00000080H   DATA     BYTE      P0
*SFR* 00000090H   DATA     BYTE      P1
*SFR* 000000A0H   DATA     BYTE      P2
*SFR* 000000B0H   DATA     BYTE      P3
*SFR* 00000087H   DATA     BYTE      PCON
*SFR* 00000090H   DATA     BYTE      PMUADC_CTL
*SFR* 000000B8H.6 DATA     BIT       PPC
*SFR* 000000B8H.4 DATA     BIT       PS
*SFR* 000000D0H   DATA     BYTE      PSW
*SFR* 000000D1H   DATA     BYTE      PSW1
*SFR* 000000B8H.1 DATA     BIT       PT0
*SFR* 000000B8H.3 DATA     BIT       PT1
*SFR* 000000B8H.5 DATA     BIT       PT2
*SFR* 000000B8H   DATA     BIT       PX0
*SFR* 000000B8H.2 DATA     BIT       PX1
*SFR* 00000098H.2 DATA     BIT       RB8
*SFR* 000000CBH   DATA     BYTE      RCAP2H
*SFR* 000000CAH   DATA     BYTE      RCAP2L
*SFR* 000000C8H.5 DATA     BIT       RCLK
*SFR* 000000B0H.7 DATA     BIT       RD
*SFR* 00000098H.4 DATA     BIT       REN
*SFR* 00000098H   DATA     BIT       RI
*SFR* 000000D0H.3 DATA     BIT       RS0
*SFR* 000000D0H.4 DATA     BIT       RS1
*SFR* 000000B0H   DATA     BIT       RXD
L251 LINKER/LOCATER V4.25                                                             12/13/2018  16:28:40  PAGE 8


*SFR* 000000A9H   DATA     BYTE      SADDR
*SFR* 000000B9H   DATA     BYTE      SADEN
      00FF2116H   ECODE    ---       sAdfuEnter??
*SFR* 00000099H   DATA     BYTE      SBUF
*SFR* 00000098H   DATA     BYTE      SCON
      00FF2305H   ECODE    ---       Sdrv_LEDDisplay??
      00FF21EDH   ECODE    ---       Sdrv_LEDPuts??
*SFR* 00000080H   DATA     BYTE      SFR_BANK
      00FF2070H   ECODE    ---       Show_welcome_logo??
*SFR* 00000098H.7 DATA     BIT       SM0
*SFR* 00000098H.6 DATA     BIT       SM1
*SFR* 00000098H.5 DATA     BIT       SM2
*SFR* 00000081H   DATA     BYTE      SP
*SFR* 000000BEH   DATA     BYTE      SPH
*SFR* 0000009BH   DATA     BYTE      SYSTEM_CTL
*SFR* 0000009CH   DATA     BYTE      SYSTEM_ONOFF
*SFR* 000000B0H.4 DATA     BIT       T0
*SFR* 000000B0H.5 DATA     BIT       T1
*SFR* 00000090H   DATA     BIT       T2
*SFR* 000000C8H   DATA     BYTE      T2CON
*SFR* 00000090H.1 DATA     BIT       T2EX
*SFR* 000000C9H   DATA     BYTE      T2MOD
*SFR* 00000098H.3 DATA     BIT       TB8
*SFR* 000000C8H.4 DATA     BIT       TCLK
*SFR* 00000088H   DATA     BYTE      TCON
*SFR* 0000009AH   DATA     BYTE      TEST_CTL
*SFR* 00000088H.5 DATA     BIT       TF0
*SFR* 00000088H.7 DATA     BIT       TF1
*SFR* 000000C8H.7 DATA     BIT       TF2
*SFR* 0000008CH   DATA     BYTE      TH0
*SFR* 0000008DH   DATA     BYTE      TH1
*SFR* 000000CDH   DATA     BYTE      TH2
*SFR* 00000098H.1 DATA     BIT       TI
*SFR* 0000008AH   DATA     BYTE      TL0
*SFR* 0000008BH   DATA     BYTE      TL1
*SFR* 000000CCH   DATA     BYTE      TL2
*SFR* 00000089H   DATA     BYTE      TMOD
*SFR* 00000088H.4 DATA     BIT       TR0
*SFR* 00000088H.6 DATA     BIT       TR1
*SFR* 000000C8H.2 DATA     BIT       TR2
*SFR* 000000B0H.1 DATA     BIT       TXD
      00FF20F3H   ECODE    ---       uart_init??
*SFR* 00000093H   DATA     BYTE      USBSTATUS
*SFR* 000000A6H   DATA     BYTE      WDTRST
*SFR* 000000B0H.6 DATA     BIT       WR



SYMBOL TABLE OF MODULE:  .\obj\welcome (CODEDISPSTART)

      VALUE       REP       CLASS    TYPE      SYMBOL NAME
      ====================================================
      ---         MODULE    ---      ---       CODEDISPSTART
      00FF2070H   PUBLIC    ECODE    ---       Show_welcome_logo??
      00FF2086H   PUBLIC    ECODE    ---       GetUsbCableStatus??
      00FF20D7H   PUBLIC    ECODE    ---       Delay_ms??
      00FF205BH   PUBLIC    ECODE    ---       charge_pump_ctl??
      00FF2069H   PUBLIC    ECODE    ---       mcu_enter_sleep??
      00FF20F3H   PUBLIC    ECODE    ---       uart_init??
      00FF2000H   PUBLIC    ECODE    ---       DispStarting??
      00000A80H   PUBLIC    EDATA    BYTE      cesel
      00000A81H   PUBLIC    EDATA    BYTE      com_num
      000000DCH   SFRSYM    DATA     BYTE      AD_Select1
      00000080H   SFRSYM    DATA     BYTE      SFR_BANK
      00000086H   SFRSYM    DATA     BYTE      MRCR1
L251 LINKER/LOCATER V4.25                                                             12/13/2018  16:28:40  PAGE 9


      00000094H   SFRSYM    DATA     BYTE      DPDMCTRL
      000000CDH   SFRSYM    DATA     BYTE      MFP_CTL5
      000000CAH   SFRSYM    DATA     BYTE      MFP_CTL2
      00000093H   SFRSYM    DATA     BYTE      USBSTATUS
      000000AFH   SFRSYM    DATA     BYTE      GPIOCDAT
      000000D3H   SFRSYM    DATA     BYTE      AD_Select
      0000009CH   SFRSYM    DATA     BYTE      SYSTEM_ONOFF
      000000A8H   SFRSYM    DATA     BYTE      IE0
      0000009BH   SFRSYM    DATA     BYTE      SYSTEM_CTL
      000000AEH   SFRSYM    DATA     BYTE      GPIOCINEN
      00000098H   SFRSYM    DATA     BYTE      CP_CTL1
      00000097H   SFRSYM    DATA     BYTE      CP_CTL0
      0000009AH   SFRSYM    DATA     BYTE      TEST_CTL
      000000AAH   SFRSYM    DATA     BYTE      CLKENCTL1
      000000ADH   SFRSYM    DATA     BYTE      GPIOCOUTEN
      00000090H   SFRSYM    DATA     BYTE      PMUADC_CTL

      00FF2000H   BLOCK     ECODE    ---       LVL=0
      00FF2002H   BLOCK     ECODE    NEAR LAB  LVL=1
      R15         REGSYM    ---      BYTE      sfrbak
      R14         REGSYM    ---      BYTE      loopcnt
      R11         REGSYM    ---      BYTE      onoff_status
      ---         BLOCKEND  ---      ---       LVL=1
      00FF2000H   LINE      ECODE    ---       #45
      00FF2002H   LINE      ECODE    ---       #46
      00FF2002H   LINE      ECODE    ---       #54
      00FF2002H   LINE      ECODE    ---       #56
      00FF2005H   LINE      ECODE    ---       #58
      00FF2009H   LINE      ECODE    ---       #60
      00FF200CH   LINE      ECODE    ---       #61
      00FF200FH   LINE      ECODE    ---       #63
      00FF2012H   LINE      ECODE    ---       #64
      00FF2016H   LINE      ECODE    ---       #65
      00FF2019H   LINE      ECODE    ---       #66
      00FF201BH   LINE      ECODE    ---       #68
      00FF201BH   LINE      ECODE    ---       #69
      00FF201BH   LINE      ECODE    ---       #71
      00FF2024H   LINE      ECODE    ---       #74
      00FF2027H   LINE      ECODE    ---       #75
      00FF202AH   LINE      ECODE    ---       #76
      00FF202DH   LINE      ECODE    ---       #77
      00FF2030H   LINE      ECODE    ---       #78
      00FF2033H   LINE      ECODE    ---       #79
      00FF2036H   LINE      ECODE    ---       #81
      00FF2039H   LINE      ECODE    ---       #82
      00FF2039H   LINE      ECODE    ---       #84
      00FF203CH   LINE      ECODE    ---       #93
      00FF2041H   LINE      ECODE    ---       #95
      00FF2044H   LINE      ECODE    ---       #96
      00FF2048H   LINE      ECODE    ---       #97
      00FF2048H   LINE      ECODE    ---       #99
      00FF204BH   LINE      ECODE    ---       #101
      00FF2051H   LINE      ECODE    ---       #102
      00FF2053H   LINE      ECODE    ---       #103
      00FF2055H   LINE      ECODE    ---       #104
      00FF2055H   LINE      ECODE    ---       #105
      00FF2058H   LINE      ECODE    ---       #106
      ---         BLOCKEND  ---      ---       LVL=0

      00FF205BH   BLOCK     ECODE    ---       LVL=0
      R11         REGSYM    ---      BYTE      sfr_bak
      00FF205BH   LINE      ECODE    ---       #107
      00FF205BH   LINE      ECODE    ---       #108
      00FF205BH   LINE      ECODE    ---       #110
      00FF205DH   LINE      ECODE    ---       #111
L251 LINKER/LOCATER V4.25                                                             12/13/2018  16:28:40  PAGE 10


      00FF2060H   LINE      ECODE    ---       #112
      00FF2063H   LINE      ECODE    ---       #113
      00FF2066H   LINE      ECODE    ---       #114
      00FF2068H   LINE      ECODE    ---       #115
      ---         BLOCKEND  ---      ---       LVL=0

      00FF2069H   BLOCK     ECODE    ---       LVL=0
      00FF2069H   LINE      ECODE    ---       #118
      00FF2069H   LINE      ECODE    ---       #120
      00FF206CH   LINE      ECODE    ---       #121
      00FF206FH   LINE      ECODE    ---       #122
      ---         BLOCKEND  ---      ---       LVL=0

      00FF2070H   BLOCK     ECODE    ---       LVL=0
      00FF2070H   LINE      ECODE    ---       #123
      00FF2070H   LINE      ECODE    ---       #125
      00FF2074H   LINE      ECODE    ---       #126
      00FF2086H   LINE      ECODE    ---       #127
      ---         BLOCKEND  ---      ---       LVL=0

      00FF2086H   BLOCK     ECODE    ---       LVL=0
      R7          REGSYM    ---      BYTE      sfr_bak
      R6          REGSYM    ---      BYTE      dpdm_status
      R10         REGSYM    ---      BYTE      usb_status
      00FF2086H   LINE      ECODE    ---       #128
      00FF2086H   LINE      ECODE    ---       #129
      00FF2086H   LINE      ECODE    ---       #132
      00FF2089H   LINE      ECODE    ---       #133
      00FF208CH   LINE      ECODE    ---       #134
      00FF208FH   LINE      ECODE    ---       #135
      00FF2092H   LINE      ECODE    ---       #136
      00FF2095H   LINE      ECODE    ---       #137
      00FF2095H   LINE      ECODE    ---       #140
      00FF209DH   LINE      ECODE    ---       #141
      00FF20A6H   LINE      ECODE    ---       #143
      00FF20A9H   LINE      ECODE    ---       #144
      00FF20A9H   LINE      ECODE    ---       #147
      00FF20B1H   LINE      ECODE    ---       #148
      00FF20BAH   LINE      ECODE    ---       #150
      00FF20BDH   LINE      ECODE    ---       #151
      00FF20BFH   LINE      ECODE    ---       #154
      00FF20C1H   LINE      ECODE    ---       #155
      00FF20C1H   LINE      ECODE    ---       #156
      00FF20C3H   LINE      ECODE    ---       #159
      00FF20C5H   LINE      ECODE    ---       #160
      00FF20C5H   LINE      ECODE    ---       #161
      00FF20C8H   LINE      ECODE    ---       #163
      00FF20CBH   LINE      ECODE    ---       #164
      00FF20D1H   LINE      ECODE    ---       #166
      00FF20D4H   LINE      ECODE    ---       #167
      00FF20D6H   LINE      ECODE    ---       #169
      ---         BLOCKEND  ---      ---       LVL=0

      00FF20D7H   BLOCK     ECODE    ---       LVL=0
      R10         REGSYM    ---      BYTE      delay_ms
      00FF20D9H   BLOCK     ECODE    NEAR LAB  LVL=1
      R7          REGSYM    ---      BYTE      i
      R6          REGSYM    ---      BYTE      j
      ---         BLOCKEND  ---      ---       LVL=1
      00FF20D7H   LINE      ECODE    ---       #170
      00FF20D9H   LINE      ECODE    ---       #171
      00FF20D9H   LINE      ECODE    ---       #173
      00FF20DBH   LINE      ECODE    ---       #175
      00FF20DDH   LINE      ECODE    ---       #177
      00FF20DFH   LINE      ECODE    ---       #179
L251 LINKER/LOCATER V4.25                                                             12/13/2018  16:28:40  PAGE 11


      00FF20E0H   LINE      ECODE    ---       #180
      00FF20E6H   LINE      ECODE    ---       #181
      00FF20ECH   LINE      ECODE    ---       #182
      00FF20EEH   LINE      ECODE    ---       #183
      00FF20F2H   LINE      ECODE    ---       #184
      ---         BLOCKEND  ---      ---       LVL=0

      00FF20F3H   BLOCK     ECODE    ---       LVL=0
      R11         REGSYM    ---      BYTE      sfr_bak
      00FF20F3H   LINE      ECODE    ---       #186
      00FF20F3H   LINE      ECODE    ---       #187
      00FF20F3H   LINE      ECODE    ---       #189
      00FF20F3H   LINE      ECODE    ---       #190
      00FF20F3H   LINE      ECODE    ---       #192
      00FF20F5H   LINE      ECODE    ---       #193
      00FF20F8H   LINE      ECODE    ---       #194
      00FF20FBH   LINE      ECODE    ---       #195
      00FF20FEH   LINE      ECODE    ---       #196
      00FF2101H   LINE      ECODE    ---       #198
      00FF2104H   LINE      ECODE    ---       #199
      00FF2107H   LINE      ECODE    ---       #200
      00FF210AH   LINE      ECODE    ---       #201
      00FF210DH   LINE      ECODE    ---       #202
      00FF2110H   LINE      ECODE    ---       #203
      00FF2113H   LINE      ECODE    ---       #205
      00FF2115H   LINE      ECODE    ---       #206
      00FF2115H   LINE      ECODE    ---       #207
      ---         BLOCKEND  ---      ---       LVL=0

      ---         MODULE    ---      ---       showLogoFuncs
      00FF2116H   PUBLIC    ECODE    ---       SADFUENTER??

      00FF2116H   BLOCK     ECODE    NEAR LAB  LVL=0
      00FF2116H   LINE      ECODE    ---       #18
      00FF211AH   LINE      ECODE    ---       #19
      00FF211CH   LINE      ECODE    ---       #20
      ---         BLOCKEND  ---      ---       LVL=0

      ---         MODULE    ---      ---       ?C_START??
      00FF9400H   PUBLIC    CODE     ---       ?C?INITEDATA
      00FF9400H   PUBLIC    CODE     ---       ?C?INITHDATA
      00FF9400H   PUBLIC    CODE     ---       ?C?STARTUP?
      00FF9400H   PUBLIC    CODE     ---       ?C_STARTUP?
      000000D0H.6 SFRSYM    DATA     BIT       AC
      000000E0H   SFRSYM    DATA     BYTE      ACC
      000000F0H   SFRSYM    DATA     BYTE      B
      000000FAH   SFRSYM    DATA     BYTE      CCAP0H
      000000EAH   SFRSYM    DATA     BYTE      CCAP0L
      000000FBH   SFRSYM    DATA     BYTE      CCAP1H
      000000EBH   SFRSYM    DATA     BYTE      CCAP1L
      000000FCH   SFRSYM    DATA     BYTE      CCAP2H
      000000ECH   SFRSYM    DATA     BYTE      CCAP2L
      000000FDH   SFRSYM    DATA     BYTE      CCAP3H
      000000EDH   SFRSYM    DATA     BYTE      CCAP3L
      000000FEH   SFRSYM    DATA     BYTE      CCAP4H
      000000EEH   SFRSYM    DATA     BYTE      CCAP4L
      000000DAH   SFRSYM    DATA     BYTE      CCAPM0
      000000DBH   SFRSYM    DATA     BYTE      CCAPM1
      000000DCH   SFRSYM    DATA     BYTE      CCAPM2
      000000DDH   SFRSYM    DATA     BYTE      CCAPM3
      000000DEH   SFRSYM    DATA     BYTE      CCAPM4
      000000D8H   SFRSYM    DATA     BIT       CCF0
      000000D8H.1 SFRSYM    DATA     BIT       CCF1
      000000D8H.2 SFRSYM    DATA     BIT       CCF2
      000000D8H.3 SFRSYM    DATA     BIT       CCF3
L251 LINKER/LOCATER V4.25                                                             12/13/2018  16:28:40  PAGE 12


      000000D8H.4 SFRSYM    DATA     BIT       CCF4
      000000D8H   SFRSYM    DATA     BYTE      CCON
      00000090H.3 SFRSYM    DATA     BIT       CEX0
      00000090H.4 SFRSYM    DATA     BIT       CEX1
      00000090H.5 SFRSYM    DATA     BIT       CEX2
      00000090H.6 SFRSYM    DATA     BIT       CEX3
      00000090H.7 SFRSYM    DATA     BIT       CEX4
      000000D8H.7 SFRSYM    DATA     BIT       CF
      000000F9H   SFRSYM    DATA     BYTE      CH
      000000E9H   SFRSYM    DATA     BYTE      CL
      000000D9H   SFRSYM    DATA     BYTE      CMOD
      000000C8H   SFRSYM    DATA     BIT       CP_RL2
      000000D8H.6 SFRSYM    DATA     BIT       CR
      000000D0H.7 SFRSYM    DATA     BIT       CY
      000000C8H.1 SFRSYM    DATA     BIT       C_T2
      00000083H   SFRSYM    DATA     BYTE      DPH
      00000082H   SFRSYM    DATA     BYTE      DPL
      00000084H   SFRSYM    DATA     BYTE      DPXL
      000000A8H.7 SFRSYM    DATA     BIT       EA
      000000A8H.6 SFRSYM    DATA     BIT       EC
      00000090H.2 SFRSYM    DATA     BIT       ECI
      000000A8H.4 SFRSYM    DATA     BIT       ES
      000000A8H.1 SFRSYM    DATA     BIT       ET0
      000000A8H.3 SFRSYM    DATA     BIT       ET1
      000000A8H.5 SFRSYM    DATA     BIT       ET2
      000000A8H   SFRSYM    DATA     BIT       EX0
      000000A8H.2 SFRSYM    DATA     BIT       EX1
      000000C8H.3 SFRSYM    DATA     BIT       EXEN2
      000000C8H.6 SFRSYM    DATA     BIT       EXF2
      000000D0H.5 SFRSYM    DATA     BIT       F0
      00000098H.7 SFRSYM    DATA     BIT       FE
      000000A8H   SFRSYM    DATA     BYTE      IE0
      00000088H.1 SFRSYM    DATA     BIT       IE0_
      000000B1H   SFRSYM    DATA     BYTE      IE1
      00000088H.3 SFRSYM    DATA     BIT       IE1_
      000000B0H.2 SFRSYM    DATA     BIT       INT0
      000000B0H.3 SFRSYM    DATA     BIT       INT1
      000000B7H   SFRSYM    DATA     BYTE      IPH0
      000000B8H   SFRSYM    DATA     BYTE      IPL0
      00000088H   SFRSYM    DATA     BIT       IT0
      00000088H.2 SFRSYM    DATA     BIT       IT1
      000000D0H.2 SFRSYM    DATA     BIT       OV
      000000D0H   SFRSYM    DATA     BIT       P
      00000080H   SFRSYM    DATA     BYTE      P0
      00000090H   SFRSYM    DATA     BYTE      P1
      000000A0H   SFRSYM    DATA     BYTE      P2
      000000B0H   SFRSYM    DATA     BYTE      P3
      00000087H   SFRSYM    DATA     BYTE      PCON
      000000B8H.6 SFRSYM    DATA     BIT       PPC
      000000B8H.4 SFRSYM    DATA     BIT       PS
      000000D0H   SFRSYM    DATA     BYTE      PSW
      000000D1H   SFRSYM    DATA     BYTE      PSW1
      000000B8H.1 SFRSYM    DATA     BIT       PT0
      000000B8H.3 SFRSYM    DATA     BIT       PT1
      000000B8H.5 SFRSYM    DATA     BIT       PT2
      000000B8H   SFRSYM    DATA     BIT       PX0
      000000B8H.2 SFRSYM    DATA     BIT       PX1
      00000098H.2 SFRSYM    DATA     BIT       RB8
      000000CBH   SFRSYM    DATA     BYTE      RCAP2H
      000000CAH   SFRSYM    DATA     BYTE      RCAP2L
      000000C8H.5 SFRSYM    DATA     BIT       RCLK
      000000B0H.7 SFRSYM    DATA     BIT       RD
      00000098H.4 SFRSYM    DATA     BIT       REN
      00000098H   SFRSYM    DATA     BIT       RI
      000000D0H.3 SFRSYM    DATA     BIT       RS0
L251 LINKER/LOCATER V4.25                                                             12/13/2018  16:28:40  PAGE 13


      000000D0H.4 SFRSYM    DATA     BIT       RS1
      000000B0H   SFRSYM    DATA     BIT       RXD
      000000A9H   SFRSYM    DATA     BYTE      SADDR
      000000B9H   SFRSYM    DATA     BYTE      SADEN
      00000099H   SFRSYM    DATA     BYTE      SBUF
      00000098H   SFRSYM    DATA     BYTE      SCON
      00000098H.7 SFRSYM    DATA     BIT       SM0
      00000098H.6 SFRSYM    DATA     BIT       SM1
      00000098H.5 SFRSYM    DATA     BIT       SM2
      00000081H   SFRSYM    DATA     BYTE      SP
      000000BEH   SFRSYM    DATA     BYTE      SPH
      000000B0H.4 SFRSYM    DATA     BIT       T0
      000000B0H.5 SFRSYM    DATA     BIT       T1
      00000090H   SFRSYM    DATA     BIT       T2
      000000C8H   SFRSYM    DATA     BYTE      T2CON
      00000090H.1 SFRSYM    DATA     BIT       T2EX
      000000C9H   SFRSYM    DATA     BYTE      T2MOD
      00000098H.3 SFRSYM    DATA     BIT       TB8
      000000C8H.4 SFRSYM    DATA     BIT       TCLK
      00000088H   SFRSYM    DATA     BYTE      TCON
      00000088H.5 SFRSYM    DATA     BIT       TF0
      00000088H.7 SFRSYM    DATA     BIT       TF1
      000000C8H.7 SFRSYM    DATA     BIT       TF2
      0000008CH   SFRSYM    DATA     BYTE      TH0
      0000008DH   SFRSYM    DATA     BYTE      TH1
      000000CDH   SFRSYM    DATA     BYTE      TH2
      00000098H.1 SFRSYM    DATA     BIT       TI
      0000008AH   SFRSYM    DATA     BYTE      TL0
      0000008BH   SFRSYM    DATA     BYTE      TL1
      000000CCH   SFRSYM    DATA     BYTE      TL2
      00000089H   SFRSYM    DATA     BYTE      TMOD
      00000088H.4 SFRSYM    DATA     BIT       TR0
      00000088H.6 SFRSYM    DATA     BIT       TR1
      000000C8H.2 SFRSYM    DATA     BIT       TR2
      000000B0H.1 SFRSYM    DATA     BIT       TXD
      000000A6H   SFRSYM    DATA     BYTE      WDTRST
      000000B0H.6 SFRSYM    DATA     BIT       WR
      00000040H   SYMBOL    NUMBER   ---       CNT

      ---         MODULE    ---      ---       HARD_INIT
      00FF214EH   PUBLIC    ECODE    ---       Hdrv_HardInit??
      00FF211DH   PUBLIC    ECODE    ---       Hdrv_SetMfpToEmif??
      00FF2137H   PUBLIC    ECODE    ---       Hdrv_SetLED??
      00000080H   SFRSYM    DATA     BYTE      SFR_BANK
      0000009FH   SFRSYM    DATA     BYTE      MRCR3
      000000CCH   SFRSYM    DATA     BYTE      MFP_CTL4
      000000CBH   SFRSYM    DATA     BYTE      MFP_CTL3
      000000CAH   SFRSYM    DATA     BYTE      MFP_CTL2
      000000C9H   SFRSYM    DATA     BYTE      MFP_CTL1
      000000A8H   SFRSYM    DATA     BYTE      IE0
      000000C9H   SFRSYM    DATA     BYTE      LED_SEGLCDCLKCTL
      000000ABH   SFRSYM    DATA     BYTE      CLKENCTL2

      00FF211DH   BLOCK     ECODE    ---       LVL=0
      R11         REGSYM    ---      BYTE      sfr_bak
      00FF211DH   LINE      ECODE    ---       #31
      00FF211DH   LINE      ECODE    ---       #32
      00FF211DH   LINE      ECODE    ---       #34
      00FF211FH   LINE      ECODE    ---       #36
      00FF2122H   LINE      ECODE    ---       #54
      00FF2125H   LINE      ECODE    ---       #56
      00FF2128H   LINE      ECODE    ---       #57
      00FF212BH   LINE      ECODE    ---       #59
      00FF212EH   LINE      ECODE    ---       #60
      00FF2131H   LINE      ECODE    ---       #62
L251 LINKER/LOCATER V4.25                                                             12/13/2018  16:28:40  PAGE 14


      00FF2134H   LINE      ECODE    ---       #64
      00FF2136H   LINE      ECODE    ---       #65
      ---         BLOCKEND  ---      ---       LVL=0

      00FF2137H   BLOCK     ECODE    ---       LVL=0
      R11         REGSYM    ---      BYTE      sfr_bak
      00FF2137H   LINE      ECODE    ---       #79
      00FF2137H   LINE      ECODE    ---       #80
      00FF2137H   LINE      ECODE    ---       #82
      00FF2139H   LINE      ECODE    ---       #84
      00FF213CH   LINE      ECODE    ---       #86
      00FF213FH   LINE      ECODE    ---       #88
      00FF2142H   LINE      ECODE    ---       #89
      00FF2145H   LINE      ECODE    ---       #92
      00FF2148H   LINE      ECODE    ---       #93
      00FF214BH   LINE      ECODE    ---       #94
      00FF214DH   LINE      ECODE    ---       #95
      ---         BLOCKEND  ---      ---       LVL=0

      00FF214EH   BLOCK     ECODE    ---       LVL=0
      00FF214EH   LINE      ECODE    ---       #109
      00FF214EH   LINE      ECODE    ---       #111
      00FF214EH   LINE      ECODE    ---       #144
      ---         BLOCKEND  ---      ---       LVL=0

      ---         MODULE    ---      ---       HARD_DEAL
      00FF214FH   PUBLIC    ECODE    ---       Hdrv_DataSend??
      00000080H   SFRSYM    DATA     BYTE      SFR_BANK
      0000008AH   SFRSYM    DATA     BYTE      LCD_MODE
      000000A8H   SFRSYM    DATA     BYTE      IE0
      00000091H   SFRSYM    DATA     BYTE      LCD_DATA4
      00000090H   SFRSYM    DATA     BYTE      LCD_DATA3
      0000008DH   SFRSYM    DATA     BYTE      LCD_DATA2
      0000008CH   SFRSYM    DATA     BYTE      LCD_DATA1
      0000008BH   SFRSYM    DATA     BYTE      LCD_DATA0

      00FF214FH   BLOCK     ECODE    ---       LVL=0
      R5          REGSYM    ---      BYTE      addr
      R7          REGSYM    ---      BYTE      val
      R6          REGSYM    ---      BYTE      distype
      00FF2151H   BLOCK     ECODE    NEAR LAB  LVL=1
      R10         REGSYM    ---      BYTE      sfr_bak
      ---         BLOCKEND  ---      ---       LVL=1
      00FF214FH   LINE      ECODE    ---       #31
      00FF2151H   LINE      ECODE    ---       #32
      00FF2151H   LINE      ECODE    ---       #34
      00FF2154H   LINE      ECODE    ---       #35
      00FF2157H   LINE      ECODE    ---       #37
      00FF216BH   LINE      ECODE    ---       #39
      00FF216BH   LINE      ECODE    ---       #40
      00FF216FH   LINE      ECODE    ---       #43
      00FF2172H   LINE      ECODE    ---       #44
      00FF2174H   LINE      ECODE    ---       #47
      00FF2178H   LINE      ECODE    ---       #48
      00FF2178H   LINE      ECODE    ---       #49
      00FF217AH   LINE      ECODE    ---       #50
      00FF217AH   LINE      ECODE    ---       #51
      00FF217EH   LINE      ECODE    ---       #54
      00FF2181H   LINE      ECODE    ---       #55
      00FF2183H   LINE      ECODE    ---       #58
      00FF2187H   LINE      ECODE    ---       #59
      00FF2187H   LINE      ECODE    ---       #60
      00FF2189H   LINE      ECODE    ---       #61
      00FF2189H   LINE      ECODE    ---       #62
      00FF218FH   LINE      ECODE    ---       #65
L251 LINKER/LOCATER V4.25                                                             12/13/2018  16:28:40  PAGE 15


      00FF2191H   LINE      ECODE    ---       #66
      00FF2193H   LINE      ECODE    ---       #69
      00FF2195H   LINE      ECODE    ---       #70
      00FF2195H   LINE      ECODE    ---       #71
      00FF2197H   LINE      ECODE    ---       #72
      00FF2197H   LINE      ECODE    ---       #73
      00FF219BH   LINE      ECODE    ---       #76
      00FF219EH   LINE      ECODE    ---       #77
      00FF21A0H   LINE      ECODE    ---       #80
      00FF21A4H   LINE      ECODE    ---       #81
      00FF21A4H   LINE      ECODE    ---       #82
      00FF21A6H   LINE      ECODE    ---       #83
      00FF21A6H   LINE      ECODE    ---       #84
      00FF21AAH   LINE      ECODE    ---       #86
      00FF21ADH   LINE      ECODE    ---       #88
      00FF21AFH   LINE      ECODE    ---       #91
      00FF21B3H   LINE      ECODE    ---       #92
      00FF21B3H   LINE      ECODE    ---       #93
      00FF21B3H   LINE      ECODE    ---       #94
      00FF21B3H   LINE      ECODE    ---       #95
      00FF21B3H   LINE      ECODE    ---       #96
      00FF21B3H   LINE      ECODE    ---       #98
      00FF21B6H   LINE      ECODE    ---       #100
      00FF21B6H   LINE      ECODE    ---       #102
      00FF21BBH   LINE      ECODE    ---       #104
      00FF21BBH   LINE      ECODE    ---       #105
      00FF21BBH   LINE      ECODE    ---       #107
      00FF21BEH   LINE      ECODE    ---       #108
      ---         BLOCKEND  ---      ---       LVL=0

      ---         MODULE    ---      ---       SDRV_DISPLAY
      00FF21EDH   PUBLIC    ECODE    ---       Sdrv_LEDPuts??
      00FF2305H   PUBLIC    ECODE    ---       Sdrv_LEDDisplay??
      00FF21BFH   PUBLIC    HCONST   ---       LED_com_add
      00FF21C3H   PUBLIC    HCONST   ---       numbershowval
      00FF21E6H   PUBLIC    HCONST   ---       iconshowval
      000000A8H   SFRSYM    DATA     BYTE      IE0

      00FF21EDH   BLOCK     ECODE    ---       LVL=0
      FFFFFFFDH   STKSYM    ---      BYTE      addr
      REG=3       REGSYM    ---      ---       str
      FFFFFFFCH   STKSYM    ---      BYTE      type
      00FF21F9H   BLOCK     ECODE    NEAR LAB  LVL=1
      00000000H   STKSYM    ---      BYTE      i
      FFFFFFFFH   STKSYM    ---      BYTE      tmp_val
      FFFFFFFEH   STKSYM    ---      BYTE      displayval
      ---         BLOCKEND  ---      ---       LVL=1
      00FF21EDH   LINE      ECODE    ---       #123
      00FF21F9H   LINE      ECODE    ---       #124
      00FF21F9H   LINE      ECODE    ---       #125
      00FF21FDH   LINE      ECODE    ---       #128
      00FF2203H   LINE      ECODE    ---       #130
      00FF220CH   LINE      ECODE    ---       #132
      00FF2226H   LINE      ECODE    ---       #133
      00FF2235H   LINE      ECODE    ---       #134
      00FF2238H   LINE      ECODE    ---       #137
      00FF2242H   LINE      ECODE    ---       #139
      00FF224DH   LINE      ECODE    ---       #140
      00FF225BH   LINE      ECODE    ---       #142
      00FF225BH   LINE      ECODE    ---       #143
      00FF2265H   LINE      ECODE    ---       #145
      00FF226BH   LINE      ECODE    ---       #146
      00FF226DH   LINE      ECODE    ---       #147
      00FF2277H   LINE      ECODE    ---       #149
      00FF2287H   LINE      ECODE    ---       #150
L251 LINKER/LOCATER V4.25                                                             12/13/2018  16:28:40  PAGE 16


      00FF2289H   LINE      ECODE    ---       #151
      00FF2293H   LINE      ECODE    ---       #153
      00FF22A1H   LINE      ECODE    ---       #154
      00FF22A3H   LINE      ECODE    ---       #157
      00FF22B9H   LINE      ECODE    ---       #158
      00FF22BBH   LINE      ECODE    ---       #159
      00FF22BBH   LINE      ECODE    ---       #160
      00FF22D2H   LINE      ECODE    ---       #161
      00FF22ECH   LINE      ECODE    ---       #162
      00FF22FEH   LINE      ECODE    ---       #163
      00FF22FEH   LINE      ECODE    ---       #165
      ---         BLOCKEND  ---      ---       LVL=0

      00FF2305H   BLOCK     ECODE    ---       LVL=0
      R7          REGSYM    ---      BYTE      addr
      R6          REGSYM    ---      BYTE      content
      R5          REGSYM    ---      BYTE      type
      00FF2307H   BLOCK     ECODE    NEAR LAB  LVL=1
      R15         REGSYM    ---      BYTE      displayval
      R14         REGSYM    ---      BYTE      displayaddr
      ---         BLOCKEND  ---      ---       LVL=1
      00FF2305H   LINE      ECODE    ---       #181
      00FF2307H   LINE      ECODE    ---       #182
      00FF2307H   LINE      ECODE    ---       #187
      00FF230BH   LINE      ECODE    ---       #192
      00FF230EH   LINE      ECODE    ---       #194
      00FF2314H   LINE      ECODE    ---       #196
      00FF231EH   LINE      ECODE    ---       #197
      00FF2320H   LINE      ECODE    ---       #200
      00FF2337H   LINE      ECODE    ---       #201
      00FF2337H   LINE      ECODE    ---       #202
      00FF2339H   LINE      ECODE    ---       #206
      00FF2348H   LINE      ECODE    ---       #208
      00FF234CH   LINE      ECODE    ---       #210
      00FF2351H   LINE      ECODE    ---       #212
      00FF2354H   LINE      ECODE    ---       #213
      00FF2354H   LINE      ECODE    ---       #214
      00FF2363H   LINE      ECODE    ---       #215
      00FF2365H   LINE      ECODE    ---       #218
      00FF2367H   LINE      ECODE    ---       #219
      00FF2367H   LINE      ECODE    ---       #220
      00FF2367H   LINE      ECODE    ---       #221
      00FF2371H   LINE      ECODE    ---       #222
      ---         BLOCKEND  ---      ---       LVL=0

Program Size: data=0.0 edata+hdata=66 xdata=0 const=51 code=1031
L251 RUN COMPLETE.  0 WARNING(S),  0 ERROR(S)
