L251 LINKER/LOCATER V4.25                                                               12/13/2018  16:28:37  PAGE 1


L251 LINKER/LOCATER V4.25, INVOKED BY:
C:\KEIL\C251\BIN\L251.EXE ..\..\..\psp_rel\lib\actos30api.LIB, ..\..\..\psp_rel\lib\LIBC.LIB, ..\..\..\psp_rel\lib\DrvDf
>> tSeg.LIB (?C_START??), .\output\Drv_header.obj, .\output\uart_msg.obj, .\output\uart.obj, .\output\uart_rcode.obj, .\
>> output\uart_apitable.obj TO .\output\drv_uart NOOVERLAY NOJMPTAB NODEFAULTLIBRARY CLASSES (ECODE (0X800000-0XFFFFFF))
>>  CLASSES (HCONST (0X800000-0XFFFFFF)) SEGMENTS (?PR?UART_RCODE (0XFF1200), ?HC?UART_RCODE, UART_APITABLE, C_RESERVE0 
>> (^0XFF15FF)) SEGMENTS (?PR?UART (0XED5600), ?HC?UART, ?PR?UART_MSG, ?HC?UART_MSG, C_RESERVE1 (^0XED5DFF)) SEGMENTS (?
>> ED?UART (0XA80), D_RESERVE0 (^0XB2F)) SEGMENTS (UI_INFO (0XFF0000))


CPU MODE:     251 SOURCE MODE
MEMORY MODEL: XSMALL


INPUT MODULES INCLUDED:
  ..\..\..\psp_rel\lib\DrvDftSeg.LIB (?C_START??)
         COMMENT TYPE 0: A251 V4.52b
  .\output\Drv_header.obj (DRV_HEADER)
         COMMENT TYPE 0: A251 V4.52b
  .\output\uart_msg.obj (UART_MSG)
         COMMENT TYPE 0: C251 V4.55
  .\output\uart.obj (UART)
         COMMENT TYPE 0: C251 V4.55
  .\output\uart_rcode.obj (UART_RCODE)
         COMMENT TYPE 0: C251 V4.55
  .\output\uart_apitable.obj (uart_apitable)
         COMMENT TYPE 0: A251 V4.52b
  ..\..\..\psp_rel\lib\actos30api.LIB (actos30api)
         COMMENT TYPE 0: A251 V4.52b
  ..\..\..\psp_rel\lib\LIBC.LIB (libc)
         COMMENT TYPE 0: A251 V4.52b


ACTIVE MEMORY CLASSES OF MODULE:  .\output\drv_uart (?C_START??)

BASE        START       END         USED      MEMORY CLASS
==========================================================
000000H     800000H     FFFFFFH     000A7EH   ECODE
000000H     800000H     FFFFFFH     000025H   HCONST
FF0000H     FF0000H     FFFFFFH     000001H   CODE
000000H     000000H     00FFFFH     000074H   EDATA
000000H     FF0000H     FFFFFFH     00002CH   ECODE_APISEG
000000H     000000H     00007FH     000008H   DATA


MEMORY MAP OF MODULE:  .\output\drv_uart (?C_START??)


START     STOP      LENGTH    ALIGN  RELOC    MEMORY CLASS   SEGMENT NAME
=========================================================================
000000H   000007H   000008H   ---    AT..     DATA           "REG BANK 0"
000008H   000A7FH   000A78H   ---    ---      **GAP**
000A80H   000AB3H   000034H   BYTE   UNIT     EDATA          ?ED?UART
000AB4H   000B2EH   00007BH   ---    ---      **GAP**
000B2FH   000B2FH   000001H   BYTE   AT..     EDATA          D_RESERVE0
000B30H   00F800H   00ECD1H   ---    ---      **GAP**
00F801H   00F801H   000001H   BYTE   AT..     EDATA          D_RESERVE1
00F802H   00F802H   000001H   BYTE   AT..     EDATA          D_RESERVE2
00F803H   00F803H   000001H   BYTE   AT..     EDATA          D_RESERVE3
00F804H   00F804H   000001H   BYTE   AT..     EDATA          D_RESERVE4
00F805H   00F805H   000001H   BYTE   AT..     EDATA          D_RESERVE5
00F806H   00F806H   000001H   BYTE   AT..     EDATA          D_RESERVE6
00F807H   00F807H   000001H   BYTE   AT..     EDATA          D_RESERVE7
00F808H   00F808H   000001H   BYTE   AT..     EDATA          D_RESERVE8
00F809H   00F809H   000001H   BYTE   AT..     EDATA          D_RESERVE9
00F80AH   00F80AH   000001H   BYTE   AT..     EDATA          D_RESERVE10
00F80BH   00F80BH   000001H   BYTE   AT..     EDATA          D_RESERVE11
L251 LINKER/LOCATER V4.25                                                             12/13/2018  16:28:37  PAGE 2


00F80CH   00F80CH   000001H   BYTE   AT..     EDATA          D_RESERVE12
00F80DH   00F80DH   000001H   BYTE   AT..     EDATA          D_RESERVE13
00F80EH   00F80EH   000001H   BYTE   AT..     EDATA          D_RESERVE14
00F80FH   00F80FH   000001H   BYTE   AT..     EDATA          D_RESERVE15
00F810H   00F810H   000001H   BYTE   AT..     EDATA          D_RESERVE16
00F811H   00F811H   000001H   BYTE   AT..     EDATA          D_RESERVE17
00F812H   00F812H   000001H   BYTE   AT..     EDATA          D_RESERVE18
00F813H   00F813H   000001H   BYTE   AT..     EDATA          D_RESERVE19
00F814H   00F814H   000001H   BYTE   AT..     EDATA          D_RESERVE20
00F815H   00F815H   000001H   BYTE   AT..     EDATA          D_RESERVE21
00F816H   00F816H   000001H   BYTE   AT..     EDATA          D_RESERVE22
00F817H   00F817H   000001H   BYTE   AT..     EDATA          D_RESERVE23
00F818H   00F818H   000001H   BYTE   AT..     EDATA          D_RESERVE24
00F819H   00F819H   000001H   BYTE   AT..     EDATA          D_RESERVE25
00F81AH   00F81AH   000001H   BYTE   AT..     EDATA          D_RESERVE26
00F81BH   00F81BH   000001H   BYTE   AT..     EDATA          D_RESERVE27
00F81CH   00F81CH   000001H   BYTE   AT..     EDATA          D_RESERVE28
00F81DH   00F81DH   000001H   BYTE   AT..     EDATA          D_RESERVE29
00F81EH   00F81EH   000001H   BYTE   AT..     EDATA          D_RESERVE30
00F81FH   00F81FH   000001H   BYTE   AT..     EDATA          D_RESERVE31
00F820H   00F820H   000001H   BYTE   AT..     EDATA          D_RESERVE32
00F821H   00F821H   000001H   BYTE   AT..     EDATA          D_RESERVE33
00F822H   00F822H   000001H   BYTE   AT..     EDATA          D_RESERVE34
00F823H   00F823H   000001H   BYTE   AT..     EDATA          D_RESERVE35
00F824H   00F824H   000001H   BYTE   AT..     EDATA          D_RESERVE36
00F825H   00F825H   000001H   BYTE   AT..     EDATA          D_RESERVE37
00F826H   00F826H   000001H   BYTE   AT..     EDATA          D_RESERVE38
00F827H   00F827H   000001H   BYTE   AT..     EDATA          D_RESERVE39
00F828H   00F828H   000001H   BYTE   AT..     EDATA          D_RESERVE40
00F829H   00F829H   000001H   BYTE   AT..     EDATA          D_RESERVE41
00F82AH   00F82AH   000001H   BYTE   AT..     EDATA          D_RESERVE42
00F82BH   00F82BH   000001H   BYTE   AT..     EDATA          D_RESERVE43
00F82CH   00F82CH   000001H   BYTE   AT..     EDATA          D_RESERVE44
00F82DH   00F82DH   000001H   BYTE   AT..     EDATA          D_RESERVE45
00F82EH   00F82EH   000001H   BYTE   AT..     EDATA          D_RESERVE46
00F82FH   00F82FH   000001H   BYTE   AT..     EDATA          D_RESERVE47
00F830H   00F830H   000001H   BYTE   AT..     EDATA          D_RESERVE48
00F831H   00F831H   000001H   BYTE   AT..     EDATA          D_RESERVE49
00F832H   00F832H   000001H   BYTE   AT..     EDATA          D_RESERVE50
00F833H   00F833H   000001H   BYTE   AT..     EDATA          D_RESERVE51
00F834H   00F834H   000001H   BYTE   AT..     EDATA          D_RESERVE52
00F835H   00F835H   000001H   BYTE   AT..     EDATA          D_RESERVE53
00F836H   00F836H   000001H   BYTE   AT..     EDATA          D_RESERVE54
00F837H   00F837H   000001H   BYTE   AT..     EDATA          D_RESERVE55
00F838H   00F838H   000001H   BYTE   AT..     EDATA          D_RESERVE56
00F839H   00F839H   000001H   BYTE   AT..     EDATA          D_RESERVE57
00F83AH   00F83AH   000001H   BYTE   AT..     EDATA          D_RESERVE58
00F83BH   00F83BH   000001H   BYTE   AT..     EDATA          D_RESERVE59
00F83CH   00F83CH   000001H   BYTE   AT..     EDATA          D_RESERVE60
00F83DH   00F83DH   000001H   BYTE   AT..     EDATA          D_RESERVE61
00F83EH   00F83EH   000001H   BYTE   AT..     EDATA          D_RESERVE62
00F83FH   00F83FH   000001H   BYTE   AT..     EDATA          D_RESERVE63
00F840H   ED55FFH   EC5DC0H   ---    ---      **GAP**
ED5600H   ED57E3H   0001E4H   BYTE   INSEG    ECODE          ?PR?UART
ED57E4H   ED57FBH   000018H   BYTE   UNIT     HCONST         ?HC?UART
ED57FCH   ED59ACH   0001B1H   BYTE   INSEG    ECODE          ?PR?UART_MSG
ED59ADH   ED59B4H   000008H   BYTE   UNIT     HCONST         ?HC?UART_MSG
ED59B5H   ED5DFEH   00044AH   ---    ---      **GAP**
ED5DFFH   ED5DFFH   000001H   BYTE   AT..     ECODE          C_RESERVE1
ED5E00H   FEFFFFH   11A200H   ---    ---      **GAP**
FF0000H   FF0021H   000022H   BYTE   UNIT     ECODE          UI_INFO
FF0022H   FF008FH   00006EH   ---    ---      **GAP**
FF0090H   FF00BBH   00002CH   BYTE   AT..     ECODE_APISEG   API30_PSP
FF00BCH   FF11FFH   001144H   ---    ---      **GAP**
FF1200H   FF139EH   00019FH   BYTE   INSEG    ECODE          ?PR?UART_RCODE
L251 LINKER/LOCATER V4.25                                                             12/13/2018  16:28:37  PAGE 3


FF139FH   FF13A3H   000005H   BYTE   UNIT     HCONST         ?HC?UART_RCODE
FF13A4H   ---       000000H   BYTE   UNIT     ECODE          UART_APITABLE
FF13A4H   FF15FEH   00025BH   ---    ---      **GAP**
FF15FFH   FF15FFH   000001H   BYTE   AT..     ECODE          C_RESERVE0
FF1600H   FF93FFH   007E00H   ---    ---      **GAP**
FF9400H   FF9400H   000001H   BYTE   AT..     CODE           ?C_C51STARTUP
FF9401H   FF9402H   000002H   ---    ---      **GAP**
FF9403H   FF9403H   000001H   BYTE   AT..     ECODE          C_RESERVE2
FF9404H   FF9404H   000001H   BYTE   AT..     ECODE          C_RESERVE3
FF9405H   FF9405H   000001H   BYTE   AT..     ECODE          C_RESERVE4
FF9406H   FF9406H   000001H   BYTE   AT..     ECODE          C_RESERVE5
FF9407H   FF9407H   000001H   BYTE   AT..     ECODE          C_RESERVE6
FF9408H   FF9408H   000001H   BYTE   AT..     ECODE          C_RESERVE7
FF9409H   FF9409H   000001H   BYTE   AT..     ECODE          C_RESERVE8
FF940AH   FF940AH   000001H   BYTE   AT..     ECODE          C_RESERVE9
FF940BH   FF940BH   000001H   BYTE   AT..     ECODE          C_RESERVE10
FF940CH   FF940CH   000001H   BYTE   AT..     ECODE          C_RESERVE11
FF940DH   FF940DH   000001H   BYTE   AT..     ECODE          C_RESERVE12
FF940EH   FF940EH   000001H   BYTE   AT..     ECODE          C_RESERVE13
FF940FH   FF940FH   000001H   BYTE   AT..     ECODE          C_RESERVE14
FF9410H   FF9410H   000001H   BYTE   AT..     ECODE          C_RESERVE15
FF9411H   FF9411H   000001H   BYTE   AT..     ECODE          C_RESERVE16
FF9412H   FF9412H   000001H   BYTE   AT..     ECODE          C_RESERVE17
FF9413H   FF9413H   000001H   BYTE   AT..     ECODE          C_RESERVE18
FF9414H   FF9414H   000001H   BYTE   AT..     ECODE          C_RESERVE19
FF9415H   FF9415H   000001H   BYTE   AT..     ECODE          C_RESERVE20
FF9416H   FF9416H   000001H   BYTE   AT..     ECODE          C_RESERVE21
FF9417H   FF9417H   000001H   BYTE   AT..     ECODE          C_RESERVE22
FF9418H   FF9418H   000001H   BYTE   AT..     ECODE          C_RESERVE23
FF9419H   FF9419H   000001H   BYTE   AT..     ECODE          C_RESERVE24
FF941AH   FF941AH   000001H   BYTE   AT..     ECODE          C_RESERVE25
FF941BH   FF941BH   000001H   BYTE   AT..     ECODE          C_RESERVE26
FF941CH   FF941CH   000001H   BYTE   AT..     ECODE          C_RESERVE27
FF941DH   FF941DH   000001H   BYTE   AT..     ECODE          C_RESERVE28
FF941EH   FF941EH   000001H   BYTE   AT..     ECODE          C_RESERVE29
FF941FH   FF941FH   000001H   BYTE   AT..     ECODE          C_RESERVE30
FF9420H   FF9420H   000001H   BYTE   AT..     ECODE          C_RESERVE31
FF9421H   FF9421H   000001H   BYTE   AT..     ECODE          C_RESERVE32
FF9422H   FF9422H   000001H   BYTE   AT..     ECODE          C_RESERVE33
FF9423H   FF9423H   000001H   BYTE   AT..     ECODE          C_RESERVE34
FF9424H   FF9424H   000001H   BYTE   AT..     ECODE          C_RESERVE35
FF9425H   FF9425H   000001H   BYTE   AT..     ECODE          C_RESERVE36
FF9426H   FF9426H   000001H   BYTE   AT..     ECODE          C_RESERVE37
FF9427H   FF9427H   000001H   BYTE   AT..     ECODE          C_RESERVE38
FF9428H   FF9428H   000001H   BYTE   AT..     ECODE          C_RESERVE39
FF9429H   FF9429H   000001H   BYTE   AT..     ECODE          C_RESERVE40
FF942AH   FF942AH   000001H   BYTE   AT..     ECODE          C_RESERVE41
FF942BH   FF942BH   000001H   BYTE   AT..     ECODE          C_RESERVE42
FF942CH   FF942CH   000001H   BYTE   AT..     ECODE          C_RESERVE43
FF942DH   FF942DH   000001H   BYTE   AT..     ECODE          C_RESERVE44
FF942EH   FF942EH   000001H   BYTE   AT..     ECODE          C_RESERVE45
FF942FH   FF942FH   000001H   BYTE   AT..     ECODE          C_RESERVE46
FF9430H   FF9430H   000001H   BYTE   AT..     ECODE          C_RESERVE47
FF9431H   FF9431H   000001H   BYTE   AT..     ECODE          C_RESERVE48
FF9432H   FF9432H   000001H   BYTE   AT..     ECODE          C_RESERVE49
FF9433H   FF9433H   000001H   BYTE   AT..     ECODE          C_RESERVE50
FF9434H   FF9434H   000001H   BYTE   AT..     ECODE          C_RESERVE51
FF9435H   FF9435H   000001H   BYTE   AT..     ECODE          C_RESERVE52
FF9436H   FF9436H   000001H   BYTE   AT..     ECODE          C_RESERVE53
FF9437H   FF9437H   000001H   BYTE   AT..     ECODE          C_RESERVE54
FF9438H   FF9438H   000001H   BYTE   AT..     ECODE          C_RESERVE55
FF9439H   FF9439H   000001H   BYTE   AT..     ECODE          C_RESERVE56
FF943AH   FF943AH   000001H   BYTE   AT..     ECODE          C_RESERVE57
FF943BH   FF943BH   000001H   BYTE   AT..     ECODE          C_RESERVE58
FF943CH   FF943CH   000001H   BYTE   AT..     ECODE          C_RESERVE59
L251 LINKER/LOCATER V4.25                                                             12/13/2018  16:28:37  PAGE 4


FF943DH   FF943DH   000001H   BYTE   AT..     ECODE          C_RESERVE60
FF943EH   FF943EH   000001H   BYTE   AT..     ECODE          C_RESERVE61
FF943FH   FF943FH   000001H   BYTE   AT..     ECODE          C_RESERVE62
FF9440H   FF9440H   000001H   BYTE   AT..     ECODE          C_RESERVE63
FF9441H   FF9441H   000001H   BYTE   AT..     ECODE          C_RESERVE64
FF9442H   FF9442H   000001H   BYTE   AT..     ECODE          C_RESERVE65
FF9443H   FF9443H   000001H   BYTE   AT..     ECODE          C_RESERVE66
FF9444H   FF9444H   000001H   BYTE   AT..     ECODE          C_RESERVE67
FF9445H   FF9445H   000001H   BYTE   AT..     ECODE          C_RESERVE68
FF9446H   FF9446H   000001H   BYTE   AT..     ECODE          C_RESERVE69
FF9447H   FF9447H   000001H   BYTE   AT..     ECODE          C_RESERVE70
FF9448H   FF9448H   000001H   BYTE   AT..     ECODE          C_RESERVE71
FF9449H   FF9449H   000001H   BYTE   AT..     ECODE          C_RESERVE72
FF944AH   FF944AH   000001H   BYTE   AT..     ECODE          C_RESERVE73
FF944BH   FF944BH   000001H   BYTE   AT..     ECODE          C_RESERVE74
FF944CH   FF944CH   000001H   BYTE   AT..     ECODE          C_RESERVE75
FF944DH   FF944DH   000001H   BYTE   AT..     ECODE          C_RESERVE76
FF944EH   FF944EH   000001H   BYTE   AT..     ECODE          C_RESERVE77
FF944FH   FF944FH   000001H   BYTE   AT..     ECODE          C_RESERVE78
FF9450H   FF9450H   000001H   BYTE   AT..     ECODE          C_RESERVE79
FF9451H   FF9451H   000001H   BYTE   AT..     ECODE          C_RESERVE80
FF9452H   FF9452H   000001H   BYTE   AT..     ECODE          C_RESERVE81
FF9453H   FF9453H   000001H   BYTE   AT..     ECODE          C_RESERVE82
FF9454H   FF9454H   000001H   BYTE   AT..     ECODE          C_RESERVE83
FF9455H   FF9455H   000001H   BYTE   AT..     ECODE          C_RESERVE84
FF9456H   FF9456H   000001H   BYTE   AT..     ECODE          C_RESERVE85
FF9457H   FF9457H   000001H   BYTE   AT..     ECODE          C_RESERVE86
FF9458H   FF9458H   000001H   BYTE   AT..     ECODE          C_RESERVE87
FF9459H   FF9459H   000001H   BYTE   AT..     ECODE          C_RESERVE88
FF945AH   FF945AH   000001H   BYTE   AT..     ECODE          C_RESERVE89
FF945BH   FF945BH   000001H   BYTE   AT..     ECODE          C_RESERVE90
FF945CH   FF945CH   000001H   BYTE   AT..     ECODE          C_RESERVE91
FF945DH   FF945DH   000001H   BYTE   AT..     ECODE          C_RESERVE92
FF945EH   FF945EH   000001H   BYTE   AT..     ECODE          C_RESERVE93
FF945FH   FF945FH   000001H   BYTE   AT..     ECODE          C_RESERVE94
FF9460H   FF9460H   000001H   BYTE   AT..     ECODE          C_RESERVE95
FF9461H   FF9461H   000001H   BYTE   AT..     ECODE          C_RESERVE96
FF9462H   FF9462H   000001H   BYTE   AT..     ECODE          C_RESERVE97
FF9463H   FF9463H   000001H   BYTE   AT..     ECODE          C_RESERVE98
FF9464H   FF9464H   000001H   BYTE   AT..     ECODE          C_RESERVE99
FF9465H   FF9465H   000001H   BYTE   AT..     ECODE          C_RESERVE100
FF9466H   FF9466H   000001H   BYTE   AT..     ECODE          C_RESERVE101
FF9467H   FF9467H   000001H   BYTE   AT..     ECODE          C_RESERVE102
FF9468H   FF9468H   000001H   BYTE   AT..     ECODE          C_RESERVE103
FF9469H   FF9469H   000001H   BYTE   AT..     ECODE          C_RESERVE104
FF946AH   FF946AH   000001H   BYTE   AT..     ECODE          C_RESERVE105
FF946BH   FF946BH   000001H   BYTE   AT..     ECODE          C_RESERVE106
FF946CH   FF946CH   000001H   BYTE   AT..     ECODE          C_RESERVE107
FF946DH   FF946DH   000001H   BYTE   AT..     ECODE          C_RESERVE108
FF946EH   FF946EH   000001H   BYTE   AT..     ECODE          C_RESERVE109
FF946FH   FF946FH   000001H   BYTE   AT..     ECODE          C_RESERVE110
FF9470H   FF9470H   000001H   BYTE   AT..     ECODE          C_RESERVE111
FF9471H   FF9471H   000001H   BYTE   AT..     ECODE          C_RESERVE112
FF9472H   FF9472H   000001H   BYTE   AT..     ECODE          C_RESERVE113
FF9473H   FF9473H   000001H   BYTE   AT..     ECODE          C_RESERVE114
FF9474H   FF9474H   000001H   BYTE   AT..     ECODE          C_RESERVE115
FF9475H   FF9475H   000001H   BYTE   AT..     ECODE          C_RESERVE116
FF9476H   FF9476H   000001H   BYTE   AT..     ECODE          C_RESERVE117
FF9477H   FF9477H   000001H   BYTE   AT..     ECODE          C_RESERVE118
FF9478H   FF9478H   000001H   BYTE   AT..     ECODE          C_RESERVE119
FF9479H   FF9479H   000001H   BYTE   AT..     ECODE          C_RESERVE120
FF947AH   FF947AH   000001H   BYTE   AT..     ECODE          C_RESERVE121
FF947BH   FF947BH   000001H   BYTE   AT..     ECODE          C_RESERVE122
FF947CH   FF947CH   000001H   BYTE   AT..     ECODE          C_RESERVE123
FF947DH   FF947DH   000001H   BYTE   AT..     ECODE          C_RESERVE124
L251 LINKER/LOCATER V4.25                                                             12/13/2018  16:28:37  PAGE 5


FF947EH   FF947EH   000001H   BYTE   AT..     ECODE          C_RESERVE125
FF947FH   FF947FH   000001H   BYTE   AT..     ECODE          C_RESERVE126
FF9480H   FF9480H   000001H   BYTE   AT..     ECODE          C_RESERVE127
FF9481H   FF9481H   000001H   BYTE   AT..     ECODE          C_RESERVE128
FF9482H   FF9482H   000001H   BYTE   AT..     ECODE          C_RESERVE129
FF9483H   FF9483H   000001H   BYTE   AT..     ECODE          C_RESERVE130
FF9484H   FF9484H   000001H   BYTE   AT..     ECODE          C_RESERVE131
FF9485H   FF9485H   000001H   BYTE   AT..     ECODE          C_RESERVE132
FF9486H   FF9486H   000001H   BYTE   AT..     ECODE          C_RESERVE133
FF9487H   FF9487H   000001H   BYTE   AT..     ECODE          C_RESERVE134
FF9488H   FF9488H   000001H   BYTE   AT..     ECODE          C_RESERVE135
FF9489H   FF9489H   000001H   BYTE   AT..     ECODE          C_RESERVE136
FF948AH   FF948AH   000001H   BYTE   AT..     ECODE          C_RESERVE137
FF948BH   FF948BH   000001H   BYTE   AT..     ECODE          C_RESERVE138
FF948CH   FF948CH   000001H   BYTE   AT..     ECODE          C_RESERVE139
FF948DH   FF948DH   000001H   BYTE   AT..     ECODE          C_RESERVE140
FF948EH   FF948EH   000001H   BYTE   AT..     ECODE          C_RESERVE141
FF948FH   FF948FH   000001H   BYTE   AT..     ECODE          C_RESERVE142
FF9490H   FF9490H   000001H   BYTE   AT..     ECODE          C_RESERVE143
FF9491H   FF9491H   000001H   BYTE   AT..     ECODE          C_RESERVE144
FF9492H   FF9492H   000001H   BYTE   AT..     ECODE          C_RESERVE145
FF9493H   FF9493H   000001H   BYTE   AT..     ECODE          C_RESERVE146
FF9494H   FF9494H   000001H   BYTE   AT..     ECODE          C_RESERVE147
FF9495H   FF9495H   000001H   BYTE   AT..     ECODE          C_RESERVE148
FF9496H   FF9496H   000001H   BYTE   AT..     ECODE          C_RESERVE149
FF9497H   FF9497H   000001H   BYTE   AT..     ECODE          C_RESERVE150
FF9498H   FF9498H   000001H   BYTE   AT..     ECODE          C_RESERVE151
FF9499H   FF9499H   000001H   BYTE   AT..     ECODE          C_RESERVE152
FF949AH   FF949AH   000001H   BYTE   AT..     ECODE          C_RESERVE153
FF949BH   FF949BH   000001H   BYTE   AT..     ECODE          C_RESERVE154
FF949CH   FF949CH   000001H   BYTE   AT..     ECODE          C_RESERVE155
FF949DH   FF949DH   000001H   BYTE   AT..     ECODE          C_RESERVE156
FF949EH   FF949EH   000001H   BYTE   AT..     ECODE          C_RESERVE157
FF949FH   FF949FH   000001H   BYTE   AT..     ECODE          C_RESERVE158
FF94A0H   FF94A0H   000001H   BYTE   AT..     ECODE          C_RESERVE159
FF94A1H   FF94A1H   000001H   BYTE   AT..     ECODE          C_RESERVE160
FF94A2H   FF94A2H   000001H   BYTE   AT..     ECODE          C_RESERVE161
FF94A3H   FF94A3H   000001H   BYTE   AT..     ECODE          C_RESERVE162
FF94A4H   FF94A4H   000001H   BYTE   AT..     ECODE          C_RESERVE163
FF94A5H   FF94A5H   000001H   BYTE   AT..     ECODE          C_RESERVE164
FF94A6H   FF94A6H   000001H   BYTE   AT..     ECODE          C_RESERVE165
FF94A7H   FF94A7H   000001H   BYTE   AT..     ECODE          C_RESERVE166
FF94A8H   FF94A8H   000001H   BYTE   AT..     ECODE          C_RESERVE167
FF94A9H   FF94A9H   000001H   BYTE   AT..     ECODE          C_RESERVE168
FF94AAH   FF94AAH   000001H   BYTE   AT..     ECODE          C_RESERVE169
FF94ABH   FF94ABH   000001H   BYTE   AT..     ECODE          C_RESERVE170
FF94ACH   FF94ACH   000001H   BYTE   AT..     ECODE          C_RESERVE171
FF94ADH   FF94ADH   000001H   BYTE   AT..     ECODE          C_RESERVE172
FF94AEH   FF94AEH   000001H   BYTE   AT..     ECODE          C_RESERVE173
FF94AFH   FF94AFH   000001H   BYTE   AT..     ECODE          C_RESERVE174
FF94B0H   FF94B0H   000001H   BYTE   AT..     ECODE          C_RESERVE175
FF94B1H   FF94B1H   000001H   BYTE   AT..     ECODE          C_RESERVE176
FF94B2H   FF94B2H   000001H   BYTE   AT..     ECODE          C_RESERVE177
FF94B3H   FF94B3H   000001H   BYTE   AT..     ECODE          C_RESERVE178
FF94B4H   FF94B4H   000001H   BYTE   AT..     ECODE          C_RESERVE179
FF94B5H   FF94B5H   000001H   BYTE   AT..     ECODE          C_RESERVE180
FF94B6H   FF94B6H   000001H   BYTE   AT..     ECODE          C_RESERVE181
FF94B7H   FF94B7H   000001H   BYTE   AT..     ECODE          C_RESERVE182
FF94B8H   FF94B8H   000001H   BYTE   AT..     ECODE          C_RESERVE183
FF94B9H   FF94B9H   000001H   BYTE   AT..     ECODE          C_RESERVE184
FF94BAH   FF94BAH   000001H   BYTE   AT..     ECODE          C_RESERVE185
FF94BBH   FF94BBH   000001H   BYTE   AT..     ECODE          C_RESERVE186
FF94BCH   FF94BCH   000001H   BYTE   AT..     ECODE          C_RESERVE187
FF94BDH   FF94BDH   000001H   BYTE   AT..     ECODE          C_RESERVE188
FF94BEH   FF94BEH   000001H   BYTE   AT..     ECODE          C_RESERVE189
L251 LINKER/LOCATER V4.25                                                             12/13/2018  16:28:37  PAGE 6


FF94BFH   FF94BFH   000001H   BYTE   AT..     ECODE          C_RESERVE190
FF94C0H   FF94C0H   000001H   BYTE   AT..     ECODE          C_RESERVE191
FF94C1H   FFB7FFH   00233FH   ---    ---      **GAP**
FFB800H   FFBC67H   000468H   BYTE   AT..     ECODE          LIBCSEG



PUBLIC SYMBOLS OF MODULE:  .\output\drv_uart (?C_START??)


      VALUE       CLASS    TYPE      PUBLIC SYMBOL NAME
      =================================================
      00FFB828H   ECODE    ---       ?C?BMOVENN
      00FFB823H   ECODE    ---       ?C?BMOVENN8
      00FFBB17H   ECODE    ---       ?C?BMOVENN8?
      00FFBB19H   ECODE    ---       ?C?BMOVENN?
      00FFB83CH   ECODE    ---       ?C?BMOVENP
      00FFB837H   ECODE    ---       ?C?BMOVENP8
      00FFBB6BH   ECODE    ---       ?C?BMOVENP8?
      00FFBB6DH   ECODE    ---       ?C?BMOVENP?
      00FFB846H   ECODE    ---       ?C?BMOVEPN
      00FFB841H   ECODE    ---       ?C?BMOVEPN8
      00FFBB94H   ECODE    ---       ?C?BMOVEPN8?
      00FFBB96H   ECODE    ---       ?C?BMOVEPN?
      00FFB832H   ECODE    ---       ?C?BMOVEPP
      00FFB82DH   ECODE    ---       ?C?BMOVEPP8
      00FFBB38H   ECODE    ---       ?C?BMOVEPP8?
      00FFBB3AH   ECODE    ---       ?C?BMOVEPP?
      000000FFH   NUMBER   ---       ?C?CODESEG
      00FF9400H   CODE     ---       ?C?INITEDATA
      00FF9400H   CODE     ---       ?C?INITHDATA
      00FFB81EH   ECODE    ---       ?C?LIMUL
      00FFBBD2H   ECODE    ---       ?C?LIMUL?
      00FFB805H   ECODE    ---       ?C?LMUL
      00FFBBC1H   ECODE    ---       ?C?LMUL?
      00FFB819H   ECODE    ---       ?C?SCDIV
      00FFBAF5H   ECODE    ---       ?C?SCDIV?
      00FFB800H   ECODE    ---       ?C?SIDIV
      00FFBA3AH   ECODE    ---       ?C?SIDIV?
      00FFB814H   ECODE    ---       ?C?SLDIV
      00FFBABFH   ECODE    ---       ?C?SLDIV?
      00FF9400H   CODE     ---       ?C?STARTUP?
      00FFB80FH   ECODE    ---       ?C?ULDIV
      00FFBA6EH   ECODE    ---       ?C?ULDIV?
      00FFB80AH   ECODE    ---       ?C?ULIDIV
      00FFBA6CH   ECODE    ---       ?C?ULIDIV?
      00000001H   NUMBER   ---       ?C?XDATASEG
      00FF9400H   CODE     ---       ?C_STARTUP?
*SFR* 000000D0H.6 DATA     BIT       AC
*SFR* 000000E0H   DATA     BYTE      ACC
*SFR* 00000089H   DATA     BYTE      ACC_CTRL
*SFR* 000000D3H   DATA     BYTE      AD_Select
*SFR* 000000F1H   DATA     BYTE      ADC_CTL0
*SFR* 000000FDH   DATA     BYTE      ADC_CTL1
*SFR* 000000BDH   DATA     BYTE      ADC_DAC_CLK_CTL
*SFR* 000000F8H   DATA     BYTE      ADC_FIFOCTL0
*SFR* 000000FCH   DATA     BYTE      ADC_FIFOCTL1
*SFR* 000000F3H   DATA     BYTE      ADC_GAIN0
*SFR* 000000F4H   DATA     BYTE      ADC_GAIN1
*SFR* 000000A2H   DATA     BYTE      ADC_SRFT_CTL0
*SFR* 000000F5H   DATA     BYTE      ADC_TUNE0
*SFR* 000000C4H   DATA     BYTE      AECLKCTL
*SFR* 000000E8H   DATA     BYTE      AIE
*SFR* 000000C0H   DATA     BYTE      AIF
*SFR* 000000F2H   DATA     BYTE      AINOP_CTL
L251 LINKER/LOCATER V4.25                                                             12/13/2018  16:28:37  PAGE 7


*SFR* 000000F7H   DATA     BYTE      AIPH
*SFR* 000000F8H   DATA     BYTE      AIPL
      00FF0094H   ECODE    ---       API_BANKSWITCH??
      00FF0098H   ECODE    ---       API_CARD_DETECT_CTRL??
      00FF0094H   ECODE    ---       API_CARDINOUT_MSG??
      00FF0090H   ECODE    ---       API_CARDSETPARAM??
      00FF0090H   ECODE    ---       API_DISABLEADC??
      00FF0090H   ECODE    ---       API_DISABLEAIN??
      00FF0090H   ECODE    ---       API_DISABLECLD??
      00FF0090H   ECODE    ---       API_DISABLEDAC??
      00FF0090H   ECODE    ---       API_DISABLEPA??
      00FF0090H   ECODE    ---       API_DISABLEPADDV??
      00FF0090H   ECODE    ---       API_DRV_ACTIVEDRIVE??
      00FF0090H   ECODE    ---       API_DRV_ACTIVEUD??
      00FF0090H   ECODE    ---       API_DRV_CHECKCARD??
      00FF0090H   ECODE    ---       API_DRV_DETECTDRIVE??
      00FF0090H   ECODE    ---       API_DRV_DETECTUD??
      00FF0090H   ECODE    ---       API_DRV_FORMATDRIVE??
      00FF0090H   ECODE    ---       API_DRV_GETACTIVEUD??
      00FF0090H   ECODE    ---       API_DRV_INSTALL??
      00FF0098H   ECODE    ---       API_DRV_UNINSTALL??
      00FF0090H   ECODE    ---       API_DSP_INITCODE??
      00FF0090H   ECODE    ---       API_DSP_INITCODEEXP??
      00FF0090H   ECODE    ---       API_ENABLEADC??
      00FF0090H   ECODE    ---       API_ENABLEAIN??
      00FF0090H   ECODE    ---       API_ENABLECLD??
      00FF0090H   ECODE    ---       API_ENABLEDAC??
      00FF0090H   ECODE    ---       API_ENABLEPA??
      00FF0090H   ECODE    ---       API_ENABLEPADDV??
      00FF0090H   ECODE    ---       API_EXECAP??
      00FF00B0H   ECODE    ---       API_FS_BACKUP??
      00FF00B0H   ECODE    ---       API_FS_CD??
      00FF00B0H   ECODE    ---       API_FS_CDBYLN??
      00FF00B0H   ECODE    ---       API_FS_DIR??
      00FF00B0H   ECODE    ---       API_FS_DIRLAST??
      00FF00B0H   ECODE    ---       API_FS_DIRPARNEXT??
      00FF00B0H   ECODE    ---       API_FS_DIRPARPREV??
      00FF00B0H   ECODE    ---       API_FS_DIRPREV??
      00FF00B0H   ECODE    ---       API_FS_EXIT??
      00FF00B0H   ECODE    ---       API_FS_FATTRALTER??
      00FF00B0H   ECODE    ---       API_FS_FCLOSE??
      00FF00B0H   ECODE    ---       API_FS_FCREATE??
      00FF00B0H   ECODE    ---       API_FS_FCREATEBYLN??
      00FF00B0H   ECODE    ---       API_FS_FOPEN??
      00FF00B0H   ECODE    ---       API_FS_FOPENBYLN??
      00FF00B0H   ECODE    ---       API_FS_FREAD??
      00FF00B0H   ECODE    ---       API_FS_FREMOVE??
      00FF00B0H   ECODE    ---       API_FS_FRENAME??
      00FF00B0H   ECODE    ---       API_FS_FSEEK??
      00FF00B0H   ECODE    ---       API_FS_FSETNAMEATTR??
      00FF00B0H   ECODE    ---       API_FS_FTELL??
      00FF00B0H   ECODE    ---       API_FS_FWRITE??
      00FF00B0H   ECODE    ---       API_FS_GETCHECKSUM??
      00FF00B0H   ECODE    ---       API_FS_GETCRTTIME??
      00FF00B0H   ECODE    ---       API_FS_GETCURDIR??
      00FF00B0H   ECODE    ---       API_FS_GETCURDIR_LAYER??
      00FF00B0H   ECODE    ---       API_FS_GETCURDIRENTRY??
      00FF00B0H   ECODE    ---       API_FS_GETFILELEN??
      00FF00B0H   ECODE    ---       API_FS_GETINFO??
      00FF00B0H   ECODE    ---       API_FS_GETNAME??
      00FF00B0H   ECODE    ---       API_FS_GETSECPERCLUS??
      00FF00B0H   ECODE    ---       API_FS_GETSPACE??
      00FF00B0H   ECODE    ---       API_FS_GETUNALIGNEDLEN??
      00FF00B0H   ECODE    ---       API_FS_GETWRTTIME??
      00FF00B0H   ECODE    ---       API_FS_INIT??
L251 LINKER/LOCATER V4.25                                                             12/13/2018  16:28:37  PAGE 8


      00FF00B0H   ECODE    ---       API_FS_JUSTBEING??
      00FF00B0H   ECODE    ---       API_FS_MAKEDIR??
      00FF00B0H   ECODE    ---       API_FS_MAKEDIRBYLN??
      00FF00B0H   ECODE    ---       API_FS_MODUNALIGNEDLEN??
      00FF00B0H   ECODE    ---       API_FS_NORERASE??
      00FF00B0H   ECODE    ---       API_FS_REMOVEDIR??
      00FF00B0H   ECODE    ---       API_FS_RESTORE??
      00FF00B0H   ECODE    ---       API_FS_SETCURDIR??
      00FF00B0H   ECODE    ---       API_FS_SETCURDIR_LAYER??
      00FF00B0H   ECODE    ---       API_FS_SETCURDIRENTRY??
      00FF00B0H   ECODE    ---       API_FS_SETMODE??
      00FF0090H   ECODE    ---       API_GETAINGAIN??
      00FF0090H   ECODE    ---       API_GETAUTORUNDISKCAP??
      00FF0090H   ECODE    ---       API_GETBATTERY??
      00FF0090H   ECODE    ---       API_GETCLDGAIN??
      00FF0090H   ECODE    ---       API_GETDACRATE??
      00FF0090H   ECODE    ---       API_GETDEFAULTCOMVAL??
      00FF0090H   ECODE    ---       API_GETEXTRTCFLAG??
      00FF0090H   ECODE    ---       API_GETFWVERSION??
      00FF0090H   ECODE    ---       API_GETHIDEDISKCAP??
      00FF0090H   ECODE    ---       API_GETMSCVOLUMELABEL??
      00FF0090H   ECODE    ---       API_GETPACKAGE??
      00FF0090H   ECODE    ---       API_GETPAVOLUME??
      00FF0090H   ECODE    ---       API_GETSDCAP??
      00FF0090H   ECODE    ---       API_GETSYSINFO??
      00FF0094H   ECODE    ---       API_GETSYSMSG??
      00FF0090H   ECODE    ---       API_GETUICAP??
      00FF0090H   ECODE    ---       API_GETUSBATTRIBUTE??
      00FF0090H   ECODE    ---       API_GETUSBCABLESTATUS??
      00FF0090H   ECODE    ---       API_GETUSBSETUPINFO??
      00FF0090H   ECODE    ---       API_GETUSBVIDPID??
      00FF0090H   ECODE    ---       API_GETVMCAP??
      00FF0090H   ECODE    ---       API_IRQ_Intercept??
      00FF0090H   ECODE    ---       API_IRQ_Release??
      00FF00B4H   ECODE    ---       API_MFS_CD??
      00FF00B4H   ECODE    ---       API_MFS_DIR??
      00FF00B4H   ECODE    ---       API_MFS_EXIT??
      00FF00B4H   ECODE    ---       API_MFS_FCLOSE??
      00FF00B4H   ECODE    ---       API_MFS_FOPEN??
      00FF00B4H   ECODE    ---       API_MFS_FREAD??
      00FF00B4H   ECODE    ---       API_MFS_GETCURDIR??
      00FF00B4H   ECODE    ---       API_MFS_GETCURDIRENTRY??
      00FF00B4H   ECODE    ---       API_MFS_GETFILELEN??
      00FF00B4H   ECODE    ---       API_MFS_GETNAME??
      00FF00B4H   ECODE    ---       API_MFS_GETSECPERCLUS??
      00FF00B4H   ECODE    ---       API_MFS_GETUNALIGNEDLEN??
      00FF00B4H   ECODE    ---       API_MFS_INIT??
      00FF00B4H   ECODE    ---       API_MFS_JUSTBEING??
      00FF00B4H   ECODE    ---       API_MFS_SETCURDIR??
      00FF00B4H   ECODE    ---       API_MFS_SETCURDIRENTRY??
      00FF00B4H   ECODE    ---       API_MFS_SETMODE??
      00FF0094H   ECODE    ---       API_PUTSYSMSG??
      00FF0094H   ECODE    ---       API_RESTOREBANKDATA??
      00FF0094H   ECODE    ---       API_SAVEBANKDATA??
      00FF00A8H   ECODE    ---       API_SD_BRE_SECTORREAD??
      00FF00A8H   ECODE    ---       API_SD_BRE_SECTORWRITE??
      00FF0090H   ECODE    ---       API_SD_FClose??
      00FF0098H   ECODE    ---       API_SD_FOpen??
      00FF0094H   ECODE    ---       API_SD_FRead??
      00FF0094H   ECODE    ---       API_SD_FSeek??
      00FF0094H   ECODE    ---       API_SD_FTELL??
      00FF0094H   ECODE    ---       API_SD_READ??
      00FF0090H   ECODE    ---       API_SETAINGAIN??
      00FF0090H   ECODE    ---       API_SETCLDGAIN??
      00FF0090H   ECODE    ---       API_SETDACRATE??
L251 LINKER/LOCATER V4.25                                                             12/13/2018  16:28:37  PAGE 9


      00FF0090H   ECODE    ---       API_SETDSPMIPS??
      00FF0090H   ECODE    ---       API_SETPAVOLUME??
      00FF0098H   ECODE    ---       API_SETPAVOLUME_LR??
      00FF0090H   ECODE    ---       API_SETPLL??
      00FF0090H   ECODE    ---       API_SETVDD??
      00FF0090H   ECODE    ---       API_SPINOR_FW_UPGRD??
      00FF0090H   ECODE    ---       API_STARTDSP??
      00FF0090H   ECODE    ---       API_STOPDSP??
      00FF0094H   ECODE    ---       API_TM_DELAY100US??
      00FF0094H   ECODE    ---       API_TM_DelayMS??
      00FF0090H   ECODE    ---       API_TM_GETDATE??
      00FF0090H   ECODE    ---       API_TM_GETTIME??
      00FF0090H   ECODE    ---       API_TM_KILLCLOCK??
      00FF0090H   ECODE    ---       API_TM_KillTimer??
      00FF0090H   ECODE    ---       API_TM_SETALARMTIME??
      00FF0090H   ECODE    ---       API_TM_SETCLOCK??
      00FF0090H   ECODE    ---       API_TM_SETDATE??
      00FF0090H   ECODE    ---       API_TM_SETTIME??
      00FF0090H   ECODE    ---       API_TM_SetTimer??
      00FF00A8H   ECODE    ---       API_UD_CLRVRAM??
      00FF00A8H   ECODE    ---       API_UD_ERASE??
      00FF00A8H   ECODE    ---       API_UD_EXIT??
      00FF00A8H   ECODE    ---       API_UD_GETCAP??
      00FF00A8H   ECODE    ---       API_UD_GETFLASHTYPE??
      00FF00A8H   ECODE    ---       API_UD_GETREMAIN??
      00FF00A8H   ECODE    ---       API_UD_GETSCTRSIZE??
      00FF00A8H   ECODE    ---       API_UD_INIT??
      00FF00A8H   ECODE    ---       API_UD_LOSE??
      00FF00ACH   ECODE    ---       API_UD_SDCARDENDF2F??
      00FF00ACH   ECODE    ---       API_UD_SDCARDEXIT??
      00FF00ACH   ECODE    ---       API_UD_SDCARDGETCAP??
      00FF00ACH   ECODE    ---       API_UD_SDCARDINIT??
      00FF00ACH   ECODE    ---       API_UD_SDCARDSECTORREAD??
      00FF00ACH   ECODE    ---       API_UD_SDCARDSECTORWRITE??
      00FF00ACH   ECODE    ---       API_UD_SDCARDSTARTTRAN??
      00FF00ACH   ECODE    ---       API_UD_SDCARDWPDETECT??
      00FF00A8H   ECODE    ---       API_UD_SECTORREAD??
      00FF00A8H   ECODE    ---       API_UD_SECTORWRITE??
      00FF00A8H   ECODE    ---       API_UD_STARTREADWRITE??
      00FF00A8H   ECODE    ---       API_UD_UPDATE??
      00FF00A8H   ECODE    ---       API_UD_WPDETECT??
      00FF00A8H   ECODE    ---       API_UH_DIRECT_STATUS??
      00FF0090H   ECODE    ---       API_UH_POWEROFF??
      00FF0090H   ECODE    ---       API_USB_CON_ENABLE??
      00FF0090H   ECODE    ---       API_USB_DEFAULT_ISR_HANDLE??
      00FF0098H   ECODE    ---       API_USB_DETECT_CTRL??
      00FF0090H   ECODE    ---       API_USBH_CHECK_UDISK??
      00FF0090H   ECODE    ---       API_VMREAD??
      00FF0090H   ECODE    ---       API_VMWRITE??
*SFR* 00000090H   DATA     BYTE      AuCodecCtl
*SFR* 00000092H   DATA     BYTE      AuCodecDebug
*SFR* 00000095H   DATA     BYTE      AuCodecDebug2
*SFR* 00000093H   DATA     BYTE      AuCodecFIFOCtl
*SFR* 000000B9H   DATA     BYTE      AUDIO_PLL_CTL
*SFR* 000000ECH   DATA     BYTE      AUTONAKCTRL
*SFR* 000000F0H   DATA     BYTE      B
*SFR* 0000008BH   DATA     BYTE      BDG_CTL
*SFR* 000000C2H   DATA     BYTE      BEPCtl1
*SFR* 000000C3H   DATA     BYTE      BEPCtl2
*SFR* 000000C4H   DATA     BYTE      BEPCtl3
*SFR* 000000C5H   DATA     BYTE      BEPCtl4
*SFR* 000000C6H   DATA     BYTE      BEPCtl5
*SFR* 000000E1H   DATA     BYTE      bist_en1
*SFR* 000000E2H   DATA     BYTE      bist_en2
*SFR* 000000E4H   DATA     BYTE      bist_fin1
L251 LINKER/LOCATER V4.25                                                             12/13/2018  16:28:37  PAGE 10


*SFR* 000000E5H   DATA     BYTE      bist_fin2
*SFR* 000000E7H   DATA     BYTE      bist_info1
*SFR* 000000E9H   DATA     BYTE      bist_info2
*SFR* 000000F3H   DATA     BYTE      BKDOOR
*SFR* 000000C8H.1 DATA     BIT       C_T2
*SFR* 000000FAH   DATA     BYTE      CCAP0H
*SFR* 000000EAH   DATA     BYTE      CCAP0L
*SFR* 000000FBH   DATA     BYTE      CCAP1H
*SFR* 000000EBH   DATA     BYTE      CCAP1L
*SFR* 000000FCH   DATA     BYTE      CCAP2H
*SFR* 000000ECH   DATA     BYTE      CCAP2L
*SFR* 000000FDH   DATA     BYTE      CCAP3H
*SFR* 000000EDH   DATA     BYTE      CCAP3L
*SFR* 000000FEH   DATA     BYTE      CCAP4H
*SFR* 000000EEH   DATA     BYTE      CCAP4L
*SFR* 000000DAH   DATA     BYTE      CCAPM0
*SFR* 000000DBH   DATA     BYTE      CCAPM1
*SFR* 000000DCH   DATA     BYTE      CCAPM2
*SFR* 000000DDH   DATA     BYTE      CCAPM3
*SFR* 000000DEH   DATA     BYTE      CCAPM4
*SFR* 000000D8H   DATA     BIT       CCF0
*SFR* 000000D8H.1 DATA     BIT       CCF1
*SFR* 000000D8H.2 DATA     BIT       CCF2
*SFR* 000000D8H.3 DATA     BIT       CCF3
*SFR* 000000D8H.4 DATA     BIT       CCF4
*SFR* 000000D8H   DATA     BYTE      CCON
*SFR* 00000090H.3 DATA     BIT       CEX0
*SFR* 00000090H.4 DATA     BIT       CEX1
*SFR* 00000090H.5 DATA     BIT       CEX2
*SFR* 00000090H.6 DATA     BIT       CEX3
*SFR* 00000090H.7 DATA     BIT       CEX4
*SFR* 000000D8H.7 DATA     BIT       CF
*SFR* 000000F9H   DATA     BYTE      CH
*SFR* 000000E9H   DATA     BYTE      CL
      00FF009CH   ECODE    ---       CLEARWATCHDOG??
*SFR* 000000A9H   DATA     BYTE      CLKENCTL0
*SFR* 000000AAH   DATA     BYTE      CLKENCTL1
*SFR* 000000ABH   DATA     BYTE      CLKENCTL2
*SFR* 000000CFH   DATA     BYTE      Clkgate
*SFR* 000000D9H   DATA     BYTE      CMOD
*SFR* 00000097H   DATA     BYTE      CP_CTL0
*SFR* 00000098H   DATA     BYTE      CP_CTL1
*SFR* 000000C8H   DATA     BIT       CP_RL2
*SFR* 000000C2H   DATA     BYTE      CPUCLKCTL
*SFR* 000000D8H.6 DATA     BIT       CR
*SFR* 000000B9H   DATA     BYTE      CTCCTL
*SFR* 000000D7H   DATA     BYTE      CTCCTL2
*SFR* 000000D0H.7 DATA     BIT       CY
*SFR* 000000E4H   DATA     BYTE      DAC_ANALOG0
*SFR* 000000E5H   DATA     BYTE      DAC_ANALOG1
*SFR* 000000D8H   DATA     BYTE      DAC_CH0_FIFO_CTL0
*SFR* 000000D9H   DATA     BYTE      DAC_CH0_FIFO_CTL1
*SFR* 00000092H   DATA     BYTE      DAC_CH0_SRFT_CTL0
*SFR* 000000DDH   DATA     BYTE      DAC_CH1_FIFO_CTL0
*SFR* 000000DEH   DATA     BYTE      DAC_CH1_FIFO_CTL1
*SFR* 0000009AH   DATA     BYTE      DAC_CH1_SRFT_CTL0
*SFR* 000000D5H   DATA     BYTE      DAC_CTL
      00000A8FH   EDATA    ---       data_read_buf
*SFR* 000000E3H   DATA     BYTE      DBGAIE
*SFR* 000000E2H   DATA     BYTE      DBGAOE
*SFR* 000000E5H   DATA     BYTE      DBGBIE
*SFR* 000000E4H   DATA     BYTE      DBGBOE
*SFR* 000000E6H   DATA     BYTE      DBGCOE
*SFR* 000000E9H   DATA     BYTE      DBGDOE
*SFR* 000000EEH   DATA     BYTE      DBGMODE
L251 LINKER/LOCATER V4.25                                                             12/13/2018  16:28:37  PAGE 11


*SFR* 000000DBH   DATA     BYTE      DBGSEL
*SFR* 000000ECH   DATA     BYTE      DDV_CTL0
      00ED590EH   ECODE    ---       deal_send_msg??
      00ED58F3H   ECODE    ---       delay_timer_count??
      00000A98H   EDATA    BYTE      delay_timer_id
*SFR* 00000094H   DATA     BYTE      DMA0CTL0
*SFR* 00000092H   DATA     BYTE      DMA0IE
*SFR* 00000091H   DATA     BYTE      DMA0IP
*SFR* 00000094H   DATA     BYTE      DMA1CTL0
*SFR* 00000092H   DATA     BYTE      DMA1IE
*SFR* 00000091H   DATA     BYTE      DMA1IP
*SFR* 00000094H   DATA     BYTE      DMA2CTL0
*SFR* 00000092H   DATA     BYTE      DMA2IE
*SFR* 00000091H   DATA     BYTE      DMA2IP
*SFR* 00000094H   DATA     BYTE      DMA3CTL0
*SFR* 00000092H   DATA     BYTE      DMA3IE
*SFR* 00000091H   DATA     BYTE      DMA3IP
*SFR* 00000094H   DATA     BYTE      DMA4CTL0
*SFR* 00000092H   DATA     BYTE      DMA4IE
*SFR* 00000091H   DATA     BYTE      DMA4IP
*SFR* 00000094H   DATA     BYTE      DPDMCTRL
*SFR* 00000083H   DATA     BYTE      DPH
*SFR* 00000082H   DATA     BYTE      DPL
*SFR* 00000084H   DATA     BYTE      DPXL
      00000A8EH   EDATA    BYTE      drop_flag
*SFR* 000000A8H.7 DATA     BIT       EA
*SFR* 000000A8H.6 DATA     BIT       EC
*SFR* 00000090H.2 DATA     BIT       ECI
*SFR* 000000A4H   DATA     BYTE      EFUSE0
*SFR* 000000A3H   DATA     BYTE      EFUSE_CTL
*SFR* 000000C8H   DATA     BYTE      Ep03tokien
*SFR* 000000C7H   DATA     BYTE      Ep03tokirq
*SFR* 00000099H   DATA     BYTE      Ep0cs_hcep0cs
*SFR* 000000CAH   DATA     BYTE      EPRST
*SFR* 000000A8H.4 DATA     BIT       ES
*SFR* 000000A8H.1 DATA     BIT       ET0
*SFR* 000000A8H.3 DATA     BIT       ET1
*SFR* 000000A8H.5 DATA     BIT       ET2
*SFR* 000000A8H   DATA     BIT       EX0
*SFR* 000000A8H.2 DATA     BIT       EX1
*SFR* 000000C8H.3 DATA     BIT       EXEN2
*SFR* 000000C8H.6 DATA     BIT       EXF2
*SFR* 000000D8H   DATA     BYTE      EXTINT
*SFR* 0000009EH   DATA     BYTE      EXTMEM_CTL
*SFR* 000000D0H.5 DATA     BIT       F0
*SFR* 00000098H.7 DATA     BIT       FE
*SFR* 000000D2H   DATA     BYTE      Fifoctrl
*SFR* 000000BBH   DATA     BYTE      FixAddr1H
*SFR* 000000C2H   DATA     BYTE      FixAddr2H
*SFR* 000000C5H   DATA     BYTE      FixAddr3H
      00ED5717H   ECODE    ---       get_uart_data??
*SFR* 000000A4H   DATA     BYTE      GPIOADAT
*SFR* 000000A3H   DATA     BYTE      GPIOAINEN
*SFR* 000000A2H   DATA     BYTE      GPIOAOUTEN
*SFR* 000000A6H   DATA     BYTE      GPIOAPDEN
*SFR* 000000A5H   DATA     BYTE      GPIOAPUEN
*SFR* 000000AAH   DATA     BYTE      GPIOBDAT
*SFR* 000000A9H   DATA     BYTE      GPIOBINEN
*SFR* 000000A7H   DATA     BYTE      GPIOBOUTEN
*SFR* 000000ACH   DATA     BYTE      GPIOBPDEN
*SFR* 000000ABH   DATA     BYTE      GPIOBPUEN
*SFR* 000000AFH   DATA     BYTE      GPIOCDAT
*SFR* 000000AEH   DATA     BYTE      GPIOCINEN
*SFR* 000000ADH   DATA     BYTE      GPIOCOUTEN
*SFR* 000000B1H   DATA     BYTE      GPIOCPDEN
L251 LINKER/LOCATER V4.25                                                             12/13/2018  16:28:37  PAGE 12


*SFR* 000000B0H   DATA     BYTE      GPIOCPUEN
*SFR* 000000B4H   DATA     BYTE      GPIODDAT
*SFR* 000000B3H   DATA     BYTE      GPIODINEN
*SFR* 000000B2H   DATA     BYTE      GPIODOUTEN
*SFR* 000000B6H   DATA     BYTE      GPIODPDEN
*SFR* 000000B5H   DATA     BYTE      GPIODPUEN
*SFR* 000000B9H   DATA     BYTE      GPIOEDAT
*SFR* 000000B8H   DATA     BYTE      GPIOEINEN
*SFR* 000000B7H   DATA     BYTE      GPIOEOUTEN
*SFR* 000000BBH   DATA     BYTE      GPIOEPDEN
*SFR* 000000BAH   DATA     BYTE      GPIOEPUEN
*SFR* 000000BFH   DATA     BYTE      GPIOFDAT
*SFR* 000000BDH   DATA     BYTE      GPIOFINEN
*SFR* 000000BCH   DATA     BYTE      GPIOFOUTEN
*SFR* 000000C2H   DATA     BYTE      GPIOFPDEN
*SFR* 000000C1H   DATA     BYTE      GPIOFPUEN
*SFR* 000000C5H   DATA     BYTE      GPIOGDAT
*SFR* 000000C4H   DATA     BYTE      GPIOGINEN
*SFR* 000000C3H   DATA     BYTE      GPIOGOUTEN
*SFR* 000000C7H   DATA     BYTE      GPIOGPDEN
*SFR* 000000C6H   DATA     BYTE      GPIOGPUEN
*SFR* 000000B2H   DATA     BYTE      Hcin0err
*SFR* 000000B6H   DATA     BYTE      Hcin2err
*SFR* 000000EDH   DATA     BYTE      HCINCTRL
*SFR* 000000B8H   DATA     BYTE      HCL_CLK_CTL
*SFR* 000000B1H   DATA     BYTE      Hcout0err
*SFR* 000000B4H   DATA     BYTE      Hcout1err
*SFR* 000000BAH   DATA     BYTE      Hcout3err
*SFR* 000000D3H   DATA     BYTE      Hcportctrl
      00000AABH   EDATA    ---       head1_read_buf
      00000AAFH   EDATA    ---       head2_read_buf
*SFR* 000000E2H   DATA     BYTE      I2S_CTL0
*SFR* 000000E3H   DATA     BYTE      I2S_CTL1
*SFR* 00000092H   DATA     BYTE      IDVBUSCTRL
*SFR* 000000A8H   DATA     BYTE      IE0
*SFR* 00000088H.1 DATA     BIT       IE0_
*SFR* 000000B1H   DATA     BYTE      IE1
*SFR* 00000088H.3 DATA     BIT       IE1_
*SFR* 00000088H   DATA     BYTE      IF0
*SFR* 000000F5H   DATA     BYTE      IFDebug0
*SFR* 000000F6H   DATA     BYTE      IFDebug1
*SFR* 0000009DH   DATA     BYTE      In1cs_hcout1cs
*SFR* 0000009CH   DATA     BYTE      In1ctrl_hcout1ctrl
*SFR* 000000A6H   DATA     BYTE      In3cs_hcout3cs
*SFR* 000000A5H   DATA     BYTE      In3ctrl_hcout3ctrl
      00ED56AEH   ECODE    ---       init_uart_info??
*SFR* 000000B0H.2 DATA     BIT       INT0
*SFR* 000000B0H.3 DATA     BIT       INT1
*SFR* 000000B7H   DATA     BYTE      IPH0
*SFR* 000000B8H   DATA     BYTE      IPL0
*SFR* 000000A5H   DATA     BYTE      IR_CTL
*SFR* 000000A6H   DATA     BYTE      IR_STA
*SFR* 00000088H   DATA     BIT       IT0
*SFR* 00000088H.2 DATA     BIT       IT1
      00FFBBDBH   ECODE    ---       ITOA1??
      00FFBBEDH   ECODE    ---       ITOA2??
      00FFBBFFH   ECODE    ---       ITOA3??
      00FFBC10H   ECODE    ---       ITOA4??
*SFR* 000000CBH   DATA     BYTE      KaraokeCtl
*SFR* 0000008AH   DATA     BYTE      LCD_MODE
*SFR* 0000008AH   DATA     BYTE      LDOPD_CTL
*SFR* 000000ECH   DATA     BYTE      LED_SEG_BIAS_EN
*SFR* 000000EBH   DATA     BYTE      LED_SEG_RC_EN
*SFR* 000000C9H   DATA     BYTE      LED_SEGLCDCLKCTL
*SFR* 000000B7H   DATA     BYTE      LOSC_CTL
L251 LINKER/LOCATER V4.25                                                             12/13/2018  16:28:37  PAGE 13


*SFR* 000000B3H   DATA     BYTE      MCU_PLL_CTL
*SFR* 000000BCH   DATA     BYTE      MCU_PLL_DEBUG_CTL
*SFR* 000000BAH   DATA     BYTE      MCU_PLL_SSC_CTL
*SFR* 000000BBH   DATA     BYTE      MCU_PLL_SSC_FSTEP
*SFR* 000000F9H   DATA     BYTE      MemBankCtl
      00FFB903H   ECODE    ---       MEMCHR??
*SFR* 000000B4H   DATA     BYTE      MEMCLKENCTL0
*SFR* 000000AEH   DATA     BYTE      MEMCLKSELCTL1
      00FFB84BH   ECODE    ---       MEMCMP??
      00FFB8DEH   ECODE    ---       MEMCPY??
      00FFB883H   ECODE    ---       MEMMOVE??
      00FFB871H   ECODE    ---       memset??
*SFR* 000000CAH   DATA     BYTE      MFP_CTL2
*SFR* 000000CDH   DATA     BYTE      MFP_CTL5
*SFR* 000000CEH   DATA     BYTE      MFP_CTL6
*SFR* 000000ABH   DATA     BYTE      MP3Ctl
*SFR* 000000ABH   DATA     BYTE      MP3EncCtl
*SFR* 000000ACH   DATA     BYTE      MP3EncInfo
*SFR* 000000ACH   DATA     BYTE      MP3HeaderInfo
*SFR* 000000BBH   DATA     BYTE      MP3HeaderSynCtl
*SFR* 000000A9H   DATA     BYTE      MP3IE
*SFR* 000000AAH   DATA     BYTE      MP3IP
*SFR* 000000AFH   DATA     BYTE      MP3TTimeH
*SFR* 00000086H   DATA     BYTE      MRCR1
*SFR* 00000089H   DATA     BYTE      MRCR2
*SFR* 0000009FH   DATA     BYTE      MRCR3
*SFR* 0000008DH   DATA     BYTE      MULTI_USED
*SFR* 000000DCH   DATA     BYTE      Otgctrl
*SFR* 000000DEH   DATA     BYTE      Otgien
*SFR* 000000DAH   DATA     BYTE      Otgirq
*SFR* 000000DDH   DATA     BYTE      Otgstatus
*SFR* 000000F5H   DATA     BYTE      OTGTRIEN
*SFR* 000000F6H   DATA     BYTE      OTGTRIRQ
*SFR* 000000A3H   DATA     BYTE      Out2cs_hcin2cs
*SFR* 000000A2H   DATA     BYTE      Out2ctrl_hcin2ctrl
*SFR* 00000090H   DATA     BYTE      OUTPCKCNTH
*SFR* 000000D0H.2 DATA     BIT       OV
*SFR* 000000D0H   DATA     BIT       P
*SFR* 00000080H   DATA     BYTE      P0
*SFR* 00000090H   DATA     BYTE      P1
*SFR* 000000A0H   DATA     BYTE      P2
*SFR* 000000B0H   DATA     BYTE      P3
*SFR* 000000EBH   DATA     BYTE      PA_APCTL
*SFR* 000000D7H   DATA     BYTE      PADDRV2
*SFR* 000000D4H   DATA     BYTE      PADPUPD
*SFR* 000000B0H   DATA     BYTE      PageAddrMask0
*SFR* 000000B1H   DATA     BYTE      PageAddrMask1
*SFR* 000000B2H   DATA     BYTE      PageAddrMask2
*SFR* 000000B3H   DATA     BYTE      PageAddrMask3
*SFR* 000000B4H   DATA     BYTE      PageAddrMask4
*SFR* 000000B5H   DATA     BYTE      PageAddrMask5
*SFR* 000000B6H   DATA     BYTE      PageAddrMask6
*SFR* 000000D2H   DATA     BYTE      PageAddrMask7
*SFR* 000000D4H   DATA     BYTE      PageAddrMask8
*SFR* 000000D5H   DATA     BYTE      PageAddrMask9
*SFR* 00000087H   DATA     BYTE      PCON
*SFR* 00000090H   DATA     BYTE      PMUADC_CTL
*SFR* 000000B8H.6 DATA     BIT       PPC
      00FFC0E6H   NUMBER   ---       PRINTD??
      00FFC0E3H   NUMBER   ---       PRINTH??
      00FFC0E0H   NUMBER   ---       PRINTS??
*SFR* 000000B8H.4 DATA     BIT       PS
*SFR* 000000D0H   DATA     BYTE      PSW
*SFR* 000000D1H   DATA     BYTE      PSW1
*SFR* 000000B8H.1 DATA     BIT       PT0
L251 LINKER/LOCATER V4.25                                                             12/13/2018  16:28:37  PAGE 14


*SFR* 000000B8H.3 DATA     BIT       PT1
*SFR* 000000B8H.5 DATA     BIT       PT2
*SFR* 000000AFH   DATA     BYTE      PWMDUTY
*SFR* 000000B8H   DATA     BIT       PX0
*SFR* 000000B8H.2 DATA     BIT       PX1
*SFR* 00000098H.2 DATA     BIT       RB8
*SFR* 000000CBH   DATA     BYTE      RCAP2H
*SFR* 000000CAH   DATA     BYTE      RCAP2L
*SFR* 000000C8H.5 DATA     BIT       RCLK
*SFR* 000000B0H.7 DATA     BIT       RD
*SFR* 000000C8H   DATA     BYTE      RedirectAddr0
*SFR* 000000C9H   DATA     BYTE      RedirectAddr1
*SFR* 000000CAH   DATA     BYTE      RedirectAddr2
*SFR* 000000CBH   DATA     BYTE      RedirectAddr3
*SFR* 000000CCH   DATA     BYTE      RedirectAddr4
*SFR* 000000CDH   DATA     BYTE      RedirectAddr5
*SFR* 000000CEH   DATA     BYTE      RedirectAddr6
*SFR* 000000CFH   DATA     BYTE      RedirectAddr7
*SFR* 00000098H.4 DATA     BIT       REN
*SFR* 00000098H   DATA     BIT       RI
      00FF00A0H   ECODE    ---       ROMDI??
      00FF00A4H   ECODE    ---       ROMEI??
*SFR* 000000D0H.3 DATA     BIT       RS0
*SFR* 000000D0H.4 DATA     BIT       RS1
*SFR* 000000A9H   DATA     BYTE      RTC_CTL0
*SFR* 000000AAH   DATA     BYTE      RTC_CTL1
*SFR* 000000B0H   DATA     BYTE      RTCTimeY
*SFR* 0000009DH   DATA     BYTE      RTCVDD_reserved
*SFR* 000000B0H   DATA     BIT       RXD
*SFR* 000000A9H   DATA     BYTE      SADDR
*SFR* 000000B9H   DATA     BYTE      SADEN
*SFR* 00000099H   DATA     BYTE      SBUF
*SFR* 00000098H   DATA     BYTE      SCON
*SFR* 0000009AH   DATA     BYTE      SD_CLK_CTL
*SFR* 0000009CH   DATA     BYTE      SD_INT_CTL
*SFR* 0000009BH   DATA     BYTE      SD_PAD_CTL
*SFR* 00000094H   DATA     BYTE      SD_STATE
*SFR* 00000093H   DATA     BYTE      SD_TF_CTL
*SFR* 0000009EH   DATA     BYTE      SD_TIMEOUT_CTL
*SFR* 000000ACH   DATA     BYTE      SDCLKCTL
      00ED5875H   ECODE    ---       send_first_msg??
*SFR* 00000080H   DATA     BYTE      SFR_BANK
*SFR* 000000AFH   DATA     BYTE      SHORTPCKIRQ
*SFR* 00000098H.7 DATA     BIT       SM0
*SFR* 00000098H.6 DATA     BIT       SM1
*SFR* 00000098H.5 DATA     BIT       SM2
*SFR* 000000ABH   DATA     BYTE      SoftCtl
*SFR* 000000A9H   DATA     BYTE      SoftIE
*SFR* 000000AAH   DATA     BYTE      SoftIP
*SFR* 00000081H   DATA     BYTE      SP
*SFR* 000000B0H   DATA     BYTE      SPDIFRX_CTL
*SFR* 000000B3H   DATA     BYTE      SPDIFRX_DEBUG
*SFR* 000000B1H   DATA     BYTE      SPDIFRX_STAT
*SFR* 000000BEH   DATA     BYTE      SPH
*SFR* 000000A2H   DATA     BYTE      SPI_BCH
*SFR* 00000099H   DATA     BYTE      SPI_CTL
*SFR* 000000A3H   DATA     BYTE      SPI_DEBUG
*SFR* 0000009AH   DATA     BYTE      SPI_DRQ
*SFR* 000000C8H   DATA     BYTE      SPI_RAND
*SFR* 0000009BH   DATA     BYTE      SPI_STA
*SFR* 000000CCH   DATA     BYTE      SRSCtl0
*SFR* 000000CDH   DATA     BYTE      SRSCtl1
*SFR* 000000CEH   DATA     BYTE      SRSCtl2
      00FFB947H   ECODE    ---       STRCAT??
      00FFB939H   ECODE    ---       STRCMP??
L251 LINKER/LOCATER V4.25                                                             12/13/2018  16:28:37  PAGE 15


      00FFB91AH   ECODE    ---       STRCPY??
      00FFB9B2H   ECODE    ---       STRLEN??
      00FFB967H   ECODE    ---       STRNCAT??
      00FFB9EBH   ECODE    ---       STRNCMP??
      00FFB9C2H   ECODE    ---       STRNCPY??
      00FFBA1AH   ECODE    ---       STRRCHR??
*SFR* 000000BCH   DATA     BYTE      SynHeaderData1
*SFR* 000000BDH   DATA     BYTE      SynHeaderData2
*SFR* 0000009BH   DATA     BYTE      SYSTEM_CTL
*SFR* 0000009CH   DATA     BYTE      SYSTEM_ONOFF
*SFR* 000000B0H.4 DATA     BIT       T0
*SFR* 000000B0H.5 DATA     BIT       T1
*SFR* 00000090H   DATA     BIT       T2
*SFR* 000000C8H   DATA     BYTE      T2CON
*SFR* 00000090H.1 DATA     BIT       T2EX
*SFR* 000000C9H   DATA     BYTE      T2MOD
*SFR* 00000098H.3 DATA     BIT       TB8
*SFR* 000000C8H.4 DATA     BIT       TCLK
*SFR* 00000088H   DATA     BYTE      TCON
*SFR* 0000009AH   DATA     BYTE      TEST_CTL
*SFR* 00000088H.5 DATA     BIT       TF0
*SFR* 00000088H.7 DATA     BIT       TF1
*SFR* 000000C8H.7 DATA     BIT       TF2
*SFR* 0000008CH   DATA     BYTE      TH0
*SFR* 0000008DH   DATA     BYTE      TH1
*SFR* 000000CDH   DATA     BYTE      TH2
*SFR* 00000098H.1 DATA     BIT       TI
*SFR* 000000DAH   DATA     BYTE      TK_DEBUG
*SFR* 00000090H   DATA     BYTE      TK_EN_CTL
*SFR* 00000091H   DATA     BYTE      TK_FUN_CTL
*SFR* 00000092H   DATA     BYTE      TK_IRQ_PD
*SFR* 00000093H   DATA     BYTE      TK_PRESS_STA
*SFR* 000000BAH   DATA     BYTE      TK_RAW_PD
*SFR* 000000ADH   DATA     BYTE      TK_UPDAT_PD
*SFR* 0000008AH   DATA     BYTE      TL0
*SFR* 0000008BH   DATA     BYTE      TL1
*SFR* 000000CCH   DATA     BYTE      TL2
*SFR* 00000089H   DATA     BYTE      TMOD
      00000AAAH   EDATA    BYTE      tmp_count
*SFR* 00000088H.4 DATA     BIT       TR0
*SFR* 00000088H.6 DATA     BIT       TR1
*SFR* 000000C8H.2 DATA     BIT       TR2
      00000A80H   EDATA    BYTE      trans_1st_finish_flag
      00000A81H   EDATA    BYTE      trans_2nd_start_flag
      00000A97H   EDATA    BYTE      trans_last_data_flag
      00FF139FH   HCONST   ---       two_stage_command
*SFR* 000000B0H.1 DATA     BIT       TXD
      00FF13A4H   ECODE    ---       UART_API_TABLE
*SFR* 00000090H   DATA     BYTE      UART_BR
      00ED58D8H   ECODE    ---       uart_charge_count??
*SFR* 00000092H   DATA     BYTE      UART_CTL
      00000A93H   EDATA    ---       uart_data
      00000A82H   EDATA    ---       uart_data1_fp
      00ED57E4H   HCONST   ---       uart_data1_str
      00000A86H   EDATA    ---       uart_data2_fp
      00ED57F0H   HCONST   ---       uart_data2_str
*SFR* 00000098H   DATA     BYTE      UART_DEBUG
*SFR* 00000093H   DATA     BYTE      UART_DRQ
      00ED568DH   ECODE    ---       UART_EXIT??
      00000A99H   EDATA    ---       uart_fifo
      00ED5600H   ECODE    ---       UART_INIT??
      00FF1200H   ECODE    ---       uart_isr??
      00000A8AH   EDATA    DWORD     uart_isr_no
*SFR* 00000091H   DATA     BYTE      UART_MODE
*SFR* 00000097H   DATA     BYTE      UART_RXDAT
L251 LINKER/LOCATER V4.25                                                             12/13/2018  16:28:37  PAGE 16


      00ED57FCH   ECODE    ---       uart_send_msg??
      00ED5823H   ECODE    ---       uart_send_msg_hex??
*SFR* 00000094H   DATA     BYTE      UART_STA
      00ED59ADH   HCONST   ---       uart_start_block
      00ED58BDH   ECODE    ---       uart_timer_count??
      00000AB3H   EDATA    BYTE      uart_timer_id
*SFR* 00000095H   DATA     BYTE      UART_TXDAT
*SFR* 00000086H   DATA     BYTE      UDMAM
      00FFC0E9H   NUMBER   ---       UPRINTF??
*SFR* 000000F7H   DATA     BYTE      USB_Efuse_Ref
*SFR* 00000095H   DATA     BYTE      USB_PHYCTRL
*SFR* 000000CBH   DATA     BYTE      UsbCTRL_STUS
*SFR* 000000EBH   DATA     BYTE      USBEIRQ
*SFR* 000000AEH   DATA     BYTE      Usbien_hcusbien
*SFR* 000000ADH   DATA     BYTE      Usbirq_hcusbirq
*SFR* 00000093H   DATA     BYTE      USBSTATUS
*SFR* 000000EFH   DATA     BYTE      VDCTRL
*SFR* 00000089H   DATA     BYTE      VOUT_CTL
*SFR* 000000ABH   DATA     BYTE      WAVCtl
*SFR* 000000ABH   DATA     BYTE      WAVEncCtl
*SFR* 000000ACH   DATA     BYTE      WAVEncInfo
*SFR* 000000A9H   DATA     BYTE      WAVIE
*SFR* 000000AAH   DATA     BYTE      WAVIP
*SFR* 000000B8H   DATA     BYTE      WDCTL
*SFR* 000000A6H   DATA     BYTE      WDTRST
*SFR* 000000ABH   DATA     BYTE      WMACtl
*SFR* 000000ACH   DATA     BYTE      WMAHeaderInfo
*SFR* 000000A9H   DATA     BYTE      WMAIE
*SFR* 000000AAH   DATA     BYTE      WMAIP
*SFR* 000000B0H.6 DATA     BIT       WR



SYMBOL TABLE OF MODULE:  .\output\drv_uart (?C_START??)

      VALUE       REP       CLASS    TYPE      SYMBOL NAME
      ====================================================
      ---         MODULE    ---      ---       ?C_START??
      00FF9400H   PUBLIC    CODE     ---       ?C?INITEDATA
      00FF9400H   PUBLIC    CODE     ---       ?C?INITHDATA
      00FF9400H   PUBLIC    CODE     ---       ?C?STARTUP?
      00FF9400H   PUBLIC    CODE     ---       ?C_STARTUP?
      000000D0H.6 SFRSYM    DATA     BIT       AC
      000000E0H   SFRSYM    DATA     BYTE      ACC
      000000F0H   SFRSYM    DATA     BYTE      B
      000000FAH   SFRSYM    DATA     BYTE      CCAP0H
      000000EAH   SFRSYM    DATA     BYTE      CCAP0L
      000000FBH   SFRSYM    DATA     BYTE      CCAP1H
      000000EBH   SFRSYM    DATA     BYTE      CCAP1L
      000000FCH   SFRSYM    DATA     BYTE      CCAP2H
      000000ECH   SFRSYM    DATA     BYTE      CCAP2L
      000000FDH   SFRSYM    DATA     BYTE      CCAP3H
      000000EDH   SFRSYM    DATA     BYTE      CCAP3L
      000000FEH   SFRSYM    DATA     BYTE      CCAP4H
      000000EEH   SFRSYM    DATA     BYTE      CCAP4L
      000000DAH   SFRSYM    DATA     BYTE      CCAPM0
      000000DBH   SFRSYM    DATA     BYTE      CCAPM1
      000000DCH   SFRSYM    DATA     BYTE      CCAPM2
      000000DDH   SFRSYM    DATA     BYTE      CCAPM3
      000000DEH   SFRSYM    DATA     BYTE      CCAPM4
      000000D8H   SFRSYM    DATA     BIT       CCF0
      000000D8H.1 SFRSYM    DATA     BIT       CCF1
      000000D8H.2 SFRSYM    DATA     BIT       CCF2
      000000D8H.3 SFRSYM    DATA     BIT       CCF3
      000000D8H.4 SFRSYM    DATA     BIT       CCF4
L251 LINKER/LOCATER V4.25                                                             12/13/2018  16:28:37  PAGE 17


      000000D8H   SFRSYM    DATA     BYTE      CCON
      00000090H.3 SFRSYM    DATA     BIT       CEX0
      00000090H.4 SFRSYM    DATA     BIT       CEX1
      00000090H.5 SFRSYM    DATA     BIT       CEX2
      00000090H.6 SFRSYM    DATA     BIT       CEX3
      00000090H.7 SFRSYM    DATA     BIT       CEX4
      000000D8H.7 SFRSYM    DATA     BIT       CF
      000000F9H   SFRSYM    DATA     BYTE      CH
      000000E9H   SFRSYM    DATA     BYTE      CL
      000000D9H   SFRSYM    DATA     BYTE      CMOD
      000000C8H   SFRSYM    DATA     BIT       CP_RL2
      000000D8H.6 SFRSYM    DATA     BIT       CR
      000000D0H.7 SFRSYM    DATA     BIT       CY
      000000C8H.1 SFRSYM    DATA     BIT       C_T2
      00000083H   SFRSYM    DATA     BYTE      DPH
      00000082H   SFRSYM    DATA     BYTE      DPL
      00000084H   SFRSYM    DATA     BYTE      DPXL
      000000A8H.7 SFRSYM    DATA     BIT       EA
      000000A8H.6 SFRSYM    DATA     BIT       EC
      00000090H.2 SFRSYM    DATA     BIT       ECI
      000000A8H.4 SFRSYM    DATA     BIT       ES
      000000A8H.1 SFRSYM    DATA     BIT       ET0
      000000A8H.3 SFRSYM    DATA     BIT       ET1
      000000A8H.5 SFRSYM    DATA     BIT       ET2
      000000A8H   SFRSYM    DATA     BIT       EX0
      000000A8H.2 SFRSYM    DATA     BIT       EX1
      000000C8H.3 SFRSYM    DATA     BIT       EXEN2
      000000C8H.6 SFRSYM    DATA     BIT       EXF2
      000000D0H.5 SFRSYM    DATA     BIT       F0
      00000098H.7 SFRSYM    DATA     BIT       FE
      000000A8H   SFRSYM    DATA     BYTE      IE0
      00000088H.1 SFRSYM    DATA     BIT       IE0_
      000000B1H   SFRSYM    DATA     BYTE      IE1
      00000088H.3 SFRSYM    DATA     BIT       IE1_
      000000B0H.2 SFRSYM    DATA     BIT       INT0
      000000B0H.3 SFRSYM    DATA     BIT       INT1
      000000B7H   SFRSYM    DATA     BYTE      IPH0
      000000B8H   SFRSYM    DATA     BYTE      IPL0
      00000088H   SFRSYM    DATA     BIT       IT0
      00000088H.2 SFRSYM    DATA     BIT       IT1
      000000D0H.2 SFRSYM    DATA     BIT       OV
      000000D0H   SFRSYM    DATA     BIT       P
      00000080H   SFRSYM    DATA     BYTE      P0
      00000090H   SFRSYM    DATA     BYTE      P1
      000000A0H   SFRSYM    DATA     BYTE      P2
      000000B0H   SFRSYM    DATA     BYTE      P3
      00000087H   SFRSYM    DATA     BYTE      PCON
      000000B8H.6 SFRSYM    DATA     BIT       PPC
      000000B8H.4 SFRSYM    DATA     BIT       PS
      000000D0H   SFRSYM    DATA     BYTE      PSW
      000000D1H   SFRSYM    DATA     BYTE      PSW1
      000000B8H.1 SFRSYM    DATA     BIT       PT0
      000000B8H.3 SFRSYM    DATA     BIT       PT1
      000000B8H.5 SFRSYM    DATA     BIT       PT2
      000000B8H   SFRSYM    DATA     BIT       PX0
      000000B8H.2 SFRSYM    DATA     BIT       PX1
      00000098H.2 SFRSYM    DATA     BIT       RB8
      000000CBH   SFRSYM    DATA     BYTE      RCAP2H
      000000CAH   SFRSYM    DATA     BYTE      RCAP2L
      000000C8H.5 SFRSYM    DATA     BIT       RCLK
      000000B0H.7 SFRSYM    DATA     BIT       RD
      00000098H.4 SFRSYM    DATA     BIT       REN
      00000098H   SFRSYM    DATA     BIT       RI
      000000D0H.3 SFRSYM    DATA     BIT       RS0
      000000D0H.4 SFRSYM    DATA     BIT       RS1
L251 LINKER/LOCATER V4.25                                                             12/13/2018  16:28:37  PAGE 18


      000000B0H   SFRSYM    DATA     BIT       RXD
      000000A9H   SFRSYM    DATA     BYTE      SADDR
      000000B9H   SFRSYM    DATA     BYTE      SADEN
      00000099H   SFRSYM    DATA     BYTE      SBUF
      00000098H   SFRSYM    DATA     BYTE      SCON
      00000098H.7 SFRSYM    DATA     BIT       SM0
      00000098H.6 SFRSYM    DATA     BIT       SM1
      00000098H.5 SFRSYM    DATA     BIT       SM2
      00000081H   SFRSYM    DATA     BYTE      SP
      000000BEH   SFRSYM    DATA     BYTE      SPH
      000000B0H.4 SFRSYM    DATA     BIT       T0
      000000B0H.5 SFRSYM    DATA     BIT       T1
      00000090H   SFRSYM    DATA     BIT       T2
      000000C8H   SFRSYM    DATA     BYTE      T2CON
      00000090H.1 SFRSYM    DATA     BIT       T2EX
      000000C9H   SFRSYM    DATA     BYTE      T2MOD
      00000098H.3 SFRSYM    DATA     BIT       TB8
      000000C8H.4 SFRSYM    DATA     BIT       TCLK
      00000088H   SFRSYM    DATA     BYTE      TCON
      00000088H.5 SFRSYM    DATA     BIT       TF0
      00000088H.7 SFRSYM    DATA     BIT       TF1
      000000C8H.7 SFRSYM    DATA     BIT       TF2
      0000008CH   SFRSYM    DATA     BYTE      TH0
      0000008DH   SFRSYM    DATA     BYTE      TH1
      000000CDH   SFRSYM    DATA     BYTE      TH2
      00000098H.1 SFRSYM    DATA     BIT       TI
      0000008AH   SFRSYM    DATA     BYTE      TL0
      0000008BH   SFRSYM    DATA     BYTE      TL1
      000000CCH   SFRSYM    DATA     BYTE      TL2
      00000089H   SFRSYM    DATA     BYTE      TMOD
      00000088H.4 SFRSYM    DATA     BIT       TR0
      00000088H.6 SFRSYM    DATA     BIT       TR1
      000000C8H.2 SFRSYM    DATA     BIT       TR2
      000000B0H.1 SFRSYM    DATA     BIT       TXD
      000000A6H   SFRSYM    DATA     BYTE      WDTRST
      000000B0H.6 SFRSYM    DATA     BIT       WR
      00000040H   SYMBOL    NUMBER   ---       CNT

      ---         MODULE    ---      ---       DRV_HEADER
      00000686H   SYMBOL    BIT      ---       AC
      000000E0H   SYMBOL    NUMBER   ---       ACC
      000000F7H   SYMBOL    NUMBER   ---       ACC_BITMAPHI
      000000F8H   SYMBOL    NUMBER   ---       ACC_BITMAPLO
      0000008AH   SYMBOL    NUMBER   ---       ACC_BLKLEN_LENHI
      0000008BH   SYMBOL    NUMBER   ---       ACC_BLKNUM_LENLO
      000000F1H   SYMBOL    NUMBER   ---       ACC_CMPDATA0_SUMHIE
      000000F2H   SYMBOL    NUMBER   ---       ACC_CMPDATA1_SUMHI
      000000F3H   SYMBOL    NUMBER   ---       ACC_CMPDATA2_SUMLO
      000000F4H   SYMBOL    NUMBER   ---       ACC_CMPDATA3_SUMLOE
      00000089H   SYMBOL    NUMBER   ---       ACC_CTRL
      0000008CH   SYMBOL    NUMBER   ---       ACC_FIFO
      000000F5H   SYMBOL    NUMBER   ---       ACC_MATCNTHI
      000000F6H   SYMBOL    NUMBER   ---       ACC_MATCNTLO
      000000F1H   SYMBOL    NUMBER   ---       ADC_CTL0
      000000FDH   SYMBOL    NUMBER   ---       ADC_CTL1
      000000BDH   SYMBOL    NUMBER   ---       ADC_DAC_CLK_CTL
      000000F8H   SYMBOL    NUMBER   ---       ADC_FIFOCTL0
      000000FCH   SYMBOL    NUMBER   ---       ADC_FIFOCTL1
      000000F7H   SYMBOL    NUMBER   ---       ADC_FIFO_DAT
      000000F3H   SYMBOL    NUMBER   ---       ADC_GAIN0
      000000F4H   SYMBOL    NUMBER   ---       ADC_GAIN1
      000000A2H   SYMBOL    NUMBER   ---       ADC_SRFT_CTL0
      000000A3H   SYMBOL    NUMBER   ---       ADC_SRFT_CTL1
      000000A4H   SYMBOL    NUMBER   ---       ADC_SRFT_CTL2
      000000A5H   SYMBOL    NUMBER   ---       ADC_SRFT_CTL3
L251 LINKER/LOCATER V4.25                                                             12/13/2018  16:28:37  PAGE 19


      000000A6H   SYMBOL    NUMBER   ---       ADC_SRFT_CTL4
      000000F5H   SYMBOL    NUMBER   ---       ADC_TUNE0
      000000F6H   SYMBOL    NUMBER   ---       ADC_TUNE1
      000000D3H   SYMBOL    NUMBER   ---       AD_SELECT
      000000DCH   SYMBOL    NUMBER   ---       AD_SELECT1
      000000C4H   SYMBOL    NUMBER   ---       AECLKCTL
      000000E8H   SYMBOL    NUMBER   ---       AIE
      000000C0H   SYMBOL    NUMBER   ---       AIF
      000000F2H   SYMBOL    NUMBER   ---       AINOP_CTL
      000000F7H   SYMBOL    NUMBER   ---       AIPH
      000000F8H   SYMBOL    NUMBER   ---       AIPL
      000000ADH   SYMBOL    NUMBER   ---       AUCODECBIRRATEH
      000000AEH   SYMBOL    NUMBER   ---       AUCODECBIRRATEL
      000000B2H   SYMBOL    NUMBER   ---       AUCODECCTIMEH
      000000B3H   SYMBOL    NUMBER   ---       AUCODECCTIMEM
      000000B4H   SYMBOL    NUMBER   ---       AUCODECCTIMES
      00000090H   SYMBOL    NUMBER   ---       AUCODECCTL
      00000092H   SYMBOL    NUMBER   ---       AUCODECDEBUG
      00000095H   SYMBOL    NUMBER   ---       AUCODECDEBUG2
      00000097H   SYMBOL    NUMBER   ---       AUCODECDECSTATEH
      00000098H   SYMBOL    NUMBER   ---       AUCODECDECSTATEL
      00000093H   SYMBOL    NUMBER   ---       AUCODECFIFOCTL
      00000094H   SYMBOL    NUMBER   ---       AUCODECFIFODATA
      000000ACH   SYMBOL    NUMBER   ---       AUCODECHEADERINFO
      000000A9H   SYMBOL    NUMBER   ---       AUCODECIE
      000000AAH   SYMBOL    NUMBER   ---       AUCODECIP
      000000AFH   SYMBOL    NUMBER   ---       AUCODECTTIMEH
      000000B0H   SYMBOL    NUMBER   ---       AUCODECTTIMEM
      000000B1H   SYMBOL    NUMBER   ---       AUCODECTTIMES
      00000091H   SYMBOL    NUMBER   ---       AUDEBUGLENGTH
      000000ABH   SYMBOL    NUMBER   ---       AUDECENCCTL
      000000B9H   SYMBOL    NUMBER   ---       AUDIO_PLL_CTL
      00000089H   SYMBOL    NUMBER   ---       AUTOINTIMER
      000000ECH   SYMBOL    NUMBER   ---       AUTONAKCTRL
      000000F0H   SYMBOL    NUMBER   ---       B
      00000091H   SYMBOL    NUMBER   ---       BATADC_DATA
      0000008BH   SYMBOL    NUMBER   ---       BDG_CTL
      0000008CH   SYMBOL    NUMBER   ---       BDG_VOL
      000000C2H   SYMBOL    NUMBER   ---       BEPCTL1
      000000C3H   SYMBOL    NUMBER   ---       BEPCTL2
      000000C4H   SYMBOL    NUMBER   ---       BEPCTL3
      000000C5H   SYMBOL    NUMBER   ---       BEPCTL4
      000000C6H   SYMBOL    NUMBER   ---       BEPCTL5
      00000085H   SYMBOL    NUMBER   ---       BIRDINFO
      000000E1H   SYMBOL    NUMBER   ---       BIST_EN1
      000000E2H   SYMBOL    NUMBER   ---       BIST_EN2
      000000E4H   SYMBOL    NUMBER   ---       BIST_FIN1
      000000E5H   SYMBOL    NUMBER   ---       BIST_FIN2
      000000E7H   SYMBOL    NUMBER   ---       BIST_INFO1
      000000E9H   SYMBOL    NUMBER   ---       BIST_INFO2
      000000F3H   SYMBOL    NUMBER   ---       BKDOOR
      0000008EH   SYMBOL    NUMBER   ---       CCMCON
      0000008FH   SYMBOL    NUMBER   ---       CCMVAL
      000000F4H   SYMBOL    NUMBER   ---       CHIPVERSION
      000000A9H   SYMBOL    NUMBER   ---       CLKENCTL0
      000000AAH   SYMBOL    NUMBER   ---       CLKENCTL1
      000000ABH   SYMBOL    NUMBER   ---       CLKENCTL2
      000000CFH   SYMBOL    NUMBER   ---       CLKGATE
      000000A5H   SYMBOL    NUMBER   ---       CODEREPLACEENTRYEX
      000000A6H   SYMBOL    NUMBER   ---       CODEREPLACEENTRYH
      000000A7H   SYMBOL    NUMBER   ---       CODEREPLACEENTRYL
      000000C2H   SYMBOL    NUMBER   ---       CPUCLKCTL
      00000097H   SYMBOL    NUMBER   ---       CP_CTL0
      00000098H   SYMBOL    NUMBER   ---       CP_CTL1
      000000BBH   SYMBOL    NUMBER   ---       CTCCNTH
L251 LINKER/LOCATER V4.25                                                             12/13/2018  16:28:37  PAGE 20


      000000D9H   SYMBOL    NUMBER   ---       CTCCNTH2
      000000BAH   SYMBOL    NUMBER   ---       CTCCNTL
      000000D8H   SYMBOL    NUMBER   ---       CTCCNTL2
      000000B9H   SYMBOL    NUMBER   ---       CTCCTL
      000000D7H   SYMBOL    NUMBER   ---       CTCCTL2
      000000CAH   SYMBOL    NUMBER   ---       CURRENTENERGY
      00000687H   SYMBOL    BIT      ---       CY
      000000E4H   SYMBOL    NUMBER   ---       DAC_ANALOG0
      000000E5H   SYMBOL    NUMBER   ---       DAC_ANALOG1
      000000D8H   SYMBOL    NUMBER   ---       DAC_CH0_FIFO_CTL0
      000000D9H   SYMBOL    NUMBER   ---       DAC_CH0_FIFO_CTL1
      000000DCH   SYMBOL    NUMBER   ---       DAC_CH0_PCMH
      000000DAH   SYMBOL    NUMBER   ---       DAC_CH0_PCML
      000000DBH   SYMBOL    NUMBER   ---       DAC_CH0_PCMM
      00000092H   SYMBOL    NUMBER   ---       DAC_CH0_SRFT_CTL0
      00000093H   SYMBOL    NUMBER   ---       DAC_CH0_SRFT_CTL1
      00000094H   SYMBOL    NUMBER   ---       DAC_CH0_SRFT_CTL2
      00000095H   SYMBOL    NUMBER   ---       DAC_CH0_SRFT_CTL3
      00000097H   SYMBOL    NUMBER   ---       DAC_CH0_SRFT_CTL4
      00000090H   SYMBOL    NUMBER   ---       DAC_CH0_SR_CTL
      00000091H   SYMBOL    NUMBER   ---       DAC_CH0_SR_GAIN
      000000DDH   SYMBOL    NUMBER   ---       DAC_CH1_FIFO_CTL0
      000000DEH   SYMBOL    NUMBER   ---       DAC_CH1_FIFO_CTL1
      000000E1H   SYMBOL    NUMBER   ---       DAC_CH1_PCMH
      000000DFH   SYMBOL    NUMBER   ---       DAC_CH1_PCML
      0000009AH   SYMBOL    NUMBER   ---       DAC_CH1_SRFT_CTL0
      0000009BH   SYMBOL    NUMBER   ---       DAC_CH1_SRFT_CTL1
      0000009CH   SYMBOL    NUMBER   ---       DAC_CH1_SRFT_CTL2
      0000009DH   SYMBOL    NUMBER   ---       DAC_CH1_SRFT_CTL3
      0000009EH   SYMBOL    NUMBER   ---       DAC_CH1_SRFT_CTL4
      00000098H   SYMBOL    NUMBER   ---       DAC_CH1_SR_CTL
      00000099H   SYMBOL    NUMBER   ---       DAC_CH1_SR_GAIN
      000000D5H   SYMBOL    NUMBER   ---       DAC_CTL
      000000E6H   SYMBOL    NUMBER   ---       DAC_TUNE0
      000000E7H   SYMBOL    NUMBER   ---       DAC_TUNE1
      000000D6H   SYMBOL    NUMBER   ---       DAC_VOLUME0
      000000D7H   SYMBOL    NUMBER   ---       DAC_VOLUME1
      000000E3H   SYMBOL    NUMBER   ---       DBGAIE
      000000E2H   SYMBOL    NUMBER   ---       DBGAOE
      000000E5H   SYMBOL    NUMBER   ---       DBGBIE
      000000E4H   SYMBOL    NUMBER   ---       DBGBOE
      000000E6H   SYMBOL    NUMBER   ---       DBGCOE
      000000E9H   SYMBOL    NUMBER   ---       DBGDOE
      000000EEH   SYMBOL    NUMBER   ---       DBGMODE
      000000DBH   SYMBOL    NUMBER   ---       DBGSEL
      000000ECH   SYMBOL    NUMBER   ---       DDV_CTL0
      000000C1H   SYMBOL    NUMBER   ---       DISCARDLEN
      00000093H   SYMBOL    NUMBER   ---       DMA01234DBG
      00000094H   SYMBOL    NUMBER   ---       DMA0CTL0
      00000095H   SYMBOL    NUMBER   ---       DMA0CTL1
      0000009DH   SYMBOL    NUMBER   ---       DMA0DADDR0H
      0000009EH   SYMBOL    NUMBER   ---       DMA0DADDR0L
      0000009FH   SYMBOL    NUMBER   ---       DMA0DADDR0M
      000000A2H   SYMBOL    NUMBER   ---       DMA0DADDR1H
      000000A3H   SYMBOL    NUMBER   ---       DMA0DADDR1L
      000000A6H   SYMBOL    NUMBER   ---       DMA0DADDR1M
      000000A4H   SYMBOL    NUMBER   ---       DMA0FRAMELENH
      000000A5H   SYMBOL    NUMBER   ---       DMA0FRAMELENL
      00000092H   SYMBOL    NUMBER   ---       DMA0IE
      00000091H   SYMBOL    NUMBER   ---       DMA0IP
      00000097H   SYMBOL    NUMBER   ---       DMA0SADDR0H
      00000098H   SYMBOL    NUMBER   ---       DMA0SADDR0L
      0000009BH   SYMBOL    NUMBER   ---       DMA0SADDR0M
      00000099H   SYMBOL    NUMBER   ---       DMA0SADDR1H
      0000009AH   SYMBOL    NUMBER   ---       DMA0SADDR1L
L251 LINKER/LOCATER V4.25                                                             12/13/2018  16:28:37  PAGE 21


      0000009CH   SYMBOL    NUMBER   ---       DMA0SADDR1M
      00000094H   SYMBOL    NUMBER   ---       DMA1CTL0
      00000095H   SYMBOL    NUMBER   ---       DMA1CTL1
      0000009DH   SYMBOL    NUMBER   ---       DMA1DADDR0H
      0000009EH   SYMBOL    NUMBER   ---       DMA1DADDR0L
      0000009FH   SYMBOL    NUMBER   ---       DMA1DADDR0M
      000000A2H   SYMBOL    NUMBER   ---       DMA1DADDR1H
      000000A3H   SYMBOL    NUMBER   ---       DMA1DADDR1L
      000000A6H   SYMBOL    NUMBER   ---       DMA1DADDR1M
      000000A4H   SYMBOL    NUMBER   ---       DMA1FRAMELENH
      000000A5H   SYMBOL    NUMBER   ---       DMA1FRAMELENL
      00000092H   SYMBOL    NUMBER   ---       DMA1IE
      00000091H   SYMBOL    NUMBER   ---       DMA1IP
      00000097H   SYMBOL    NUMBER   ---       DMA1SADDR0H
      00000098H   SYMBOL    NUMBER   ---       DMA1SADDR0L
      0000009BH   SYMBOL    NUMBER   ---       DMA1SADDR0M
      00000099H   SYMBOL    NUMBER   ---       DMA1SADDR1H
      0000009AH   SYMBOL    NUMBER   ---       DMA1SADDR1L
      0000009CH   SYMBOL    NUMBER   ---       DMA1SADDR1M
      00000094H   SYMBOL    NUMBER   ---       DMA2CTL0
      00000095H   SYMBOL    NUMBER   ---       DMA2CTL1
      0000009DH   SYMBOL    NUMBER   ---       DMA2DADDR0H
      0000009EH   SYMBOL    NUMBER   ---       DMA2DADDR0L
      0000009FH   SYMBOL    NUMBER   ---       DMA2DADDR0M
      000000A2H   SYMBOL    NUMBER   ---       DMA2DADDR1H
      000000A3H   SYMBOL    NUMBER   ---       DMA2DADDR1L
      000000A6H   SYMBOL    NUMBER   ---       DMA2DADDR1M
      000000A4H   SYMBOL    NUMBER   ---       DMA2FRAMELENH
      000000A5H   SYMBOL    NUMBER   ---       DMA2FRAMELENL
      00000092H   SYMBOL    NUMBER   ---       DMA2IE
      00000091H   SYMBOL    NUMBER   ---       DMA2IP
      00000097H   SYMBOL    NUMBER   ---       DMA2SADDR0H
      00000098H   SYMBOL    NUMBER   ---       DMA2SADDR0L
      0000009BH   SYMBOL    NUMBER   ---       DMA2SADDR0M
      00000099H   SYMBOL    NUMBER   ---       DMA2SADDR1H
      0000009AH   SYMBOL    NUMBER   ---       DMA2SADDR1L
      0000009CH   SYMBOL    NUMBER   ---       DMA2SADDR1M
      00000094H   SYMBOL    NUMBER   ---       DMA3CTL0
      00000095H   SYMBOL    NUMBER   ---       DMA3CTL1
      0000009DH   SYMBOL    NUMBER   ---       DMA3DADDR0H
      0000009EH   SYMBOL    NUMBER   ---       DMA3DADDR0L
      0000009FH   SYMBOL    NUMBER   ---       DMA3DADDR0M
      000000A2H   SYMBOL    NUMBER   ---       DMA3DADDR1H
      000000A3H   SYMBOL    NUMBER   ---       DMA3DADDR1L
      000000A6H   SYMBOL    NUMBER   ---       DMA3DADDR1M
      000000A4H   SYMBOL    NUMBER   ---       DMA3FRAMELENH
      000000A5H   SYMBOL    NUMBER   ---       DMA3FRAMELENL
      00000092H   SYMBOL    NUMBER   ---       DMA3IE
      00000091H   SYMBOL    NUMBER   ---       DMA3IP
      00000097H   SYMBOL    NUMBER   ---       DMA3SADDR0H
      00000098H   SYMBOL    NUMBER   ---       DMA3SADDR0L
      0000009BH   SYMBOL    NUMBER   ---       DMA3SADDR0M
      00000099H   SYMBOL    NUMBER   ---       DMA3SADDR1H
      0000009AH   SYMBOL    NUMBER   ---       DMA3SADDR1L
      0000009CH   SYMBOL    NUMBER   ---       DMA3SADDR1M
      00000094H   SYMBOL    NUMBER   ---       DMA4CTL0
      00000095H   SYMBOL    NUMBER   ---       DMA4CTL1
      0000009DH   SYMBOL    NUMBER   ---       DMA4DADDR0H
      0000009EH   SYMBOL    NUMBER   ---       DMA4DADDR0L
      0000009FH   SYMBOL    NUMBER   ---       DMA4DADDR0M
      000000A2H   SYMBOL    NUMBER   ---       DMA4DADDR1H
      000000A3H   SYMBOL    NUMBER   ---       DMA4DADDR1L
      000000A6H   SYMBOL    NUMBER   ---       DMA4DADDR1M
      000000A4H   SYMBOL    NUMBER   ---       DMA4FRAMELENH
      000000A5H   SYMBOL    NUMBER   ---       DMA4FRAMELENL
L251 LINKER/LOCATER V4.25                                                             12/13/2018  16:28:37  PAGE 22


      00000092H   SYMBOL    NUMBER   ---       DMA4IE
      00000091H   SYMBOL    NUMBER   ---       DMA4IP
      00000097H   SYMBOL    NUMBER   ---       DMA4SADDR0H
      00000098H   SYMBOL    NUMBER   ---       DMA4SADDR0L
      0000009BH   SYMBOL    NUMBER   ---       DMA4SADDR0M
      00000099H   SYMBOL    NUMBER   ---       DMA4SADDR1H
      0000009AH   SYMBOL    NUMBER   ---       DMA4SADDR1L
      0000009CH   SYMBOL    NUMBER   ---       DMA4SADDR1M
      00000094H   SYMBOL    NUMBER   ---       DMANCTL0
      00000095H   SYMBOL    NUMBER   ---       DMANCTL1
      0000009DH   SYMBOL    NUMBER   ---       DMANDADDR0H
      0000009EH   SYMBOL    NUMBER   ---       DMANDADDR0L
      0000009FH   SYMBOL    NUMBER   ---       DMANDADDR0M
      000000A2H   SYMBOL    NUMBER   ---       DMANDADDR1H
      000000A3H   SYMBOL    NUMBER   ---       DMANDADDR1L
      000000A6H   SYMBOL    NUMBER   ---       DMANDADDR1M
      000000A4H   SYMBOL    NUMBER   ---       DMANFRAMELENH
      000000A5H   SYMBOL    NUMBER   ---       DMANFRAMELENL
      00000092H   SYMBOL    NUMBER   ---       DMANIE
      00000091H   SYMBOL    NUMBER   ---       DMANIP
      00000097H   SYMBOL    NUMBER   ---       DMANSADDR0H
      00000098H   SYMBOL    NUMBER   ---       DMANSADDR0L
      0000009BH   SYMBOL    NUMBER   ---       DMANSADDR0M
      00000099H   SYMBOL    NUMBER   ---       DMANSADDR1H
      0000009AH   SYMBOL    NUMBER   ---       DMANSADDR1L
      0000009CH   SYMBOL    NUMBER   ---       DMANSADDR1M
      00000094H   SYMBOL    NUMBER   ---       DPDMCTRL
      00000083H   SYMBOL    NUMBER   ---       DPH
      00000082H   SYMBOL    NUMBER   ---       DPL
      00000084H   SYMBOL    NUMBER   ---       DPXL
      00FF0016H   SYMBOL    ECODE    ---       DRV_BNKAFILEADDR
      00FF001AH   SYMBOL    ECODE    ---       DRV_BNKBFILEADDR
      00FF0012H   SYMBOL    ECODE    DWORD     DRV_EXITAPI
      00FF0000H   SYMBOL    ECODE    BYTE      DRV_FILETYPE
      00FF000EH   SYMBOL    ECODE    DWORD     DRV_INITAPI
      00FF001EH   SYMBOL    ECODE    DWORD     DRV_OPENTRY
      00FF0008H   SYMBOL    ECODE    WORD      DRV_RCODE2LENGTH
      00FF0006H   SYMBOL    ECODE    WORD      DRV_RCODE2STARTADDR
      00FF0004H   SYMBOL    ECODE    WORD      DRV_RCODELENGTH
      00FF0002H   SYMBOL    ECODE    WORD      DRV_RCODESTARTADDR
      00FF000CH   SYMBOL    ECODE    WORD      DRV_RDATALENGTH
      00FF000AH   SYMBOL    ECODE    WORD      DRV_RDATASTARTADDR
      00FF0001H   SYMBOL    ECODE    BYTE      DRV_TYPE
      00000547H   SYMBOL    BIT      ---       EA
      000000A4H   SYMBOL    NUMBER   ---       EFUSE0
      000000A5H   SYMBOL    NUMBER   ---       EFUSE1
      000000A6H   SYMBOL    NUMBER   ---       EFUSE2
      000000A7H   SYMBOL    NUMBER   ---       EFUSE3
      000000A3H   SYMBOL    NUMBER   ---       EFUSE_CTL
      000000C6H   SYMBOL    NUMBER   ---       EP03IEN
      000000C5H   SYMBOL    NUMBER   ---       EP03IRQ
      000000C8H   SYMBOL    NUMBER   ---       EP03TOKIEN
      000000C7H   SYMBOL    NUMBER   ---       EP03TOKIRQ
      00000099H   SYMBOL    NUMBER   ---       EP0CS_HCEP0CS
      000000ABH   SYMBOL    NUMBER   ---       EP0INDATA
      000000ACH   SYMBOL    NUMBER   ---       EP0OUTDATA
      0000008CH   SYMBOL    NUMBER   ---       EP1DMALENH
      0000008DH   SYMBOL    NUMBER   ---       EP1DMALENL
      0000008AH   SYMBOL    NUMBER   ---       EP1STADDRH
      0000008BH   SYMBOL    NUMBER   ---       EP1STADDRL
      000000E2H   SYMBOL    NUMBER   ---       EP2DMALENH
      000000E3H   SYMBOL    NUMBER   ---       EP2DMALENL
      000000B7H   SYMBOL    NUMBER   ---       EP2STADDRH
      000000B8H   SYMBOL    NUMBER   ---       EP2STADDRL
      000000CAH   SYMBOL    NUMBER   ---       EPRST
L251 LINKER/LOCATER V4.25                                                             12/13/2018  16:28:37  PAGE 23


      000000D8H   SYMBOL    NUMBER   ---       EXTINT
      0000009EH   SYMBOL    NUMBER   ---       EXTMEM_CTL
      000000FEH   SYMBOL    NUMBER   ---       EXTMEM_DH
      000000FFH   SYMBOL    NUMBER   ---       EXTMEM_DL
      0000009FH   SYMBOL    NUMBER   ---       EXTMEM_WT
      00000096H   SYMBOL    NUMBER   ---       EXWAIT
      00000685H   SYMBOL    BIT      ---       F0
      000000A7H   SYMBOL    NUMBER   ---       FIFO1DAT
      000000A9H   SYMBOL    NUMBER   ---       FIFO2DAT
      000000AAH   SYMBOL    NUMBER   ---       FIFO3DAT
      000000D2H   SYMBOL    NUMBER   ---       FIFOCTRL
      000000D3H   SYMBOL    NUMBER   ---       FIXADDR0H
      000000BAH   SYMBOL    NUMBER   ---       FIXADDR0L
      000000B9H   SYMBOL    NUMBER   ---       FIXADDR0M
      000000BBH   SYMBOL    NUMBER   ---       FIXADDR1H
      000000BDH   SYMBOL    NUMBER   ---       FIXADDR1L
      000000BCH   SYMBOL    NUMBER   ---       FIXADDR1M
      000000C2H   SYMBOL    NUMBER   ---       FIXADDR2H
      000000C4H   SYMBOL    NUMBER   ---       FIXADDR2L
      000000C3H   SYMBOL    NUMBER   ---       FIXADDR2M
      000000C5H   SYMBOL    NUMBER   ---       FIXADDR3H
      000000C7H   SYMBOL    NUMBER   ---       FIXADDR3L
      000000C6H   SYMBOL    NUMBER   ---       FIXADDR3M
      000000C8H   SYMBOL    NUMBER   ---       FMCLKCTL
      000000CEH   SYMBOL    NUMBER   ---       FNADDR
      000000B9H   SYMBOL    NUMBER   ---       FRAMELEN0
      000000B8H   SYMBOL    NUMBER   ---       FRAMELEN1
      000000CCH   SYMBOL    NUMBER   ---       FRMCNTH
      000000CDH   SYMBOL    NUMBER   ---       FRMCNTL
      000000FCH   SYMBOL    NUMBER   ---       FSMPRESTATE
      000000A2H   SYMBOL    NUMBER   ---       FS_CTL
      000000C7H   SYMBOL    NUMBER   ---       GLOBALGAINH
      000000C9H   SYMBOL    NUMBER   ---       GLOBALGAINL
      000000C8H   SYMBOL    NUMBER   ---       GLOBALGAINM
      000000A4H   SYMBOL    NUMBER   ---       GPIOADAT
      000000A3H   SYMBOL    NUMBER   ---       GPIOAINEN
      000000A2H   SYMBOL    NUMBER   ---       GPIOAOUTEN
      000000A6H   SYMBOL    NUMBER   ---       GPIOAPDEN
      000000A5H   SYMBOL    NUMBER   ---       GPIOAPUEN
      000000AAH   SYMBOL    NUMBER   ---       GPIOBDAT
      000000A9H   SYMBOL    NUMBER   ---       GPIOBINEN
      000000A7H   SYMBOL    NUMBER   ---       GPIOBOUTEN
      000000ACH   SYMBOL    NUMBER   ---       GPIOBPDEN
      000000ABH   SYMBOL    NUMBER   ---       GPIOBPUEN
      000000AFH   SYMBOL    NUMBER   ---       GPIOCDAT
      000000AEH   SYMBOL    NUMBER   ---       GPIOCINEN
      000000ADH   SYMBOL    NUMBER   ---       GPIOCOUTEN
      000000B1H   SYMBOL    NUMBER   ---       GPIOCPDEN
      000000B0H   SYMBOL    NUMBER   ---       GPIOCPUEN
      000000B4H   SYMBOL    NUMBER   ---       GPIODDAT
      000000B3H   SYMBOL    NUMBER   ---       GPIODINEN
      000000B2H   SYMBOL    NUMBER   ---       GPIODOUTEN
      000000B6H   SYMBOL    NUMBER   ---       GPIODPDEN
      000000B5H   SYMBOL    NUMBER   ---       GPIODPUEN
      000000B9H   SYMBOL    NUMBER   ---       GPIOEDAT
      000000B8H   SYMBOL    NUMBER   ---       GPIOEINEN
      000000B7H   SYMBOL    NUMBER   ---       GPIOEOUTEN
      000000BBH   SYMBOL    NUMBER   ---       GPIOEPDEN
      000000BAH   SYMBOL    NUMBER   ---       GPIOEPUEN
      000000BFH   SYMBOL    NUMBER   ---       GPIOFDAT
      000000BDH   SYMBOL    NUMBER   ---       GPIOFINEN
      000000BCH   SYMBOL    NUMBER   ---       GPIOFOUTEN
      000000C2H   SYMBOL    NUMBER   ---       GPIOFPDEN
      000000C1H   SYMBOL    NUMBER   ---       GPIOFPUEN
      000000C5H   SYMBOL    NUMBER   ---       GPIOGDAT
L251 LINKER/LOCATER V4.25                                                             12/13/2018  16:28:37  PAGE 24


      000000C4H   SYMBOL    NUMBER   ---       GPIOGINEN
      000000C3H   SYMBOL    NUMBER   ---       GPIOGOUTEN
      000000C7H   SYMBOL    NUMBER   ---       GPIOGPDEN
      000000C6H   SYMBOL    NUMBER   ---       GPIOGPUEN
      000000D9H   SYMBOL    NUMBER   ---       HCEP03ERRIEN
      000000D8H   SYMBOL    NUMBER   ---       HCEP03ERRIRQ
      000000B0H   SYMBOL    NUMBER   ---       HCEP0CTRL
      000000D4H   SYMBOL    NUMBER   ---       HCFRMNH
      000000D5H   SYMBOL    NUMBER   ---       HCFRMNL
      000000D6H   SYMBOL    NUMBER   ---       HCFRMREMAINH
      000000D7H   SYMBOL    NUMBER   ---       HCFRMREMAINL
      000000B2H   SYMBOL    NUMBER   ---       HCIN0ERR
      000000E4H   SYMBOL    NUMBER   ---       HCIN0MAXPCK
      000000FDH   SYMBOL    NUMBER   ---       HCIN2CNTH
      000000FEH   SYMBOL    NUMBER   ---       HCIN2CNTL
      000000B5H   SYMBOL    NUMBER   ---       HCIN2CTRL
      000000B6H   SYMBOL    NUMBER   ---       HCIN2ERR
      000000E5H   SYMBOL    NUMBER   ---       HCIN2MAXPCKH
      000000E6H   SYMBOL    NUMBER   ---       HCIN2MAXPCKL
      000000EDH   SYMBOL    NUMBER   ---       HCINCTRL
      000000B8H   SYMBOL    NUMBER   ---       HCL_CLK_CTL
      000000B5H   SYMBOL    NUMBER   ---       HCL_INTERVAL_CTL
      000000B1H   SYMBOL    NUMBER   ---       HCOUT0ERR
      000000B3H   SYMBOL    NUMBER   ---       HCOUT1CTRL
      000000B4H   SYMBOL    NUMBER   ---       HCOUT1ERR
      000000E9H   SYMBOL    NUMBER   ---       HCOUT1MAXPCKH
      000000EAH   SYMBOL    NUMBER   ---       HCOUT1MAXPCKL
      000000B9H   SYMBOL    NUMBER   ---       HCOUT3CTRL
      000000BAH   SYMBOL    NUMBER   ---       HCOUT3ERR
      000000E7H   SYMBOL    NUMBER   ---       HCOUT3MAXPCK
      000000D3H   SYMBOL    NUMBER   ---       HCPORTCTRL
      000000B6H   SYMBOL    NUMBER   ---       HOSC_CTL
      000000CFH   SYMBOL    NUMBER   ---       HPFGAIN
      000000E2H   SYMBOL    NUMBER   ---       I2S_CTL0
      000000E3H   SYMBOL    NUMBER   ---       I2S_CTL1
      00000092H   SYMBOL    NUMBER   ---       IDVBUSCTRL
      000000A8H   SYMBOL    NUMBER   ---       IE0
      00000088H   SYMBOL    NUMBER   ---       IF0
      000000F5H   SYMBOL    NUMBER   ---       IFDEBUG0
      000000F6H   SYMBOL    NUMBER   ---       IFDEBUG1
      00000098H   SYMBOL    NUMBER   ---       IN0BC_HCOUT0BC
      0000009AH   SYMBOL    NUMBER   ---       IN1BCH_HCOUT1BCH
      0000009BH   SYMBOL    NUMBER   ---       IN1BCL_HCOUT1BCL
      0000009DH   SYMBOL    NUMBER   ---       IN1CS_HCOUT1CS
      0000009CH   SYMBOL    NUMBER   ---       IN1CTRL_HCOUT1CTRL
      000000A4H   SYMBOL    NUMBER   ---       IN3BC_HCOUT3BC
      000000A6H   SYMBOL    NUMBER   ---       IN3CS_HCOUT3CS
      000000A5H   SYMBOL    NUMBER   ---       IN3CTRL_HCOUT3CTRL
      000000B7H   SYMBOL    NUMBER   ---       IPH0
      000000B8H   SYMBOL    NUMBER   ---       IPL0
      000000A5H   SYMBOL    NUMBER   ---       IR_CTL
      000000A9H   SYMBOL    NUMBER   ---       IR_HUC
      000000AAH   SYMBOL    NUMBER   ---       IR_KDC
      000000A7H   SYMBOL    NUMBER   ---       IR_LUC
      000000A6H   SYMBOL    NUMBER   ---       IR_STA
      000000C9H   SYMBOL    NUMBER   ---       IVECT
      000000CBH   SYMBOL    NUMBER   ---       KARAOKECTL
      0000008BH   SYMBOL    NUMBER   ---       LCD_DATA0
      0000008CH   SYMBOL    NUMBER   ---       LCD_DATA1
      00000098H   SYMBOL    NUMBER   ---       LCD_DATA10
      00000099H   SYMBOL    NUMBER   ---       LCD_DATA11
      0000009AH   SYMBOL    NUMBER   ---       LCD_DATA12
      0000009BH   SYMBOL    NUMBER   ---       LCD_DATA13
      0000009CH   SYMBOL    NUMBER   ---       LCD_DATA14
      0000009DH   SYMBOL    NUMBER   ---       LCD_DATA15
L251 LINKER/LOCATER V4.25                                                             12/13/2018  16:28:37  PAGE 25


      0000008DH   SYMBOL    NUMBER   ---       LCD_DATA2
      00000090H   SYMBOL    NUMBER   ---       LCD_DATA3
      00000091H   SYMBOL    NUMBER   ---       LCD_DATA4
      00000092H   SYMBOL    NUMBER   ---       LCD_DATA5
      00000093H   SYMBOL    NUMBER   ---       LCD_DATA6
      00000094H   SYMBOL    NUMBER   ---       LCD_DATA7
      00000095H   SYMBOL    NUMBER   ---       LCD_DATA8
      00000097H   SYMBOL    NUMBER   ---       LCD_DATA9
      0000008AH   SYMBOL    NUMBER   ---       LCD_MODE
      000000CCH   SYMBOL    NUMBER   ---       LCHGAIN
      0000008AH   SYMBOL    NUMBER   ---       LDOPD_CTL
      000000C9H   SYMBOL    NUMBER   ---       LED_SEGLCDCLKCTL
      000000ECH   SYMBOL    NUMBER   ---       LED_SEG_BIAS_EN
      000000EBH   SYMBOL    NUMBER   ---       LED_SEG_RC_EN
      000000B7H   SYMBOL    NUMBER   ---       LOSC_CTL
      000000CEH   SYMBOL    NUMBER   ---       LPFGAIN
      00000092H   SYMBOL    NUMBER   ---       LRADC1_DATA
      00000093H   SYMBOL    NUMBER   ---       LRADC3_DATA
      00000094H   SYMBOL    NUMBER   ---       LRADC4_DATA
      00000095H   SYMBOL    NUMBER   ---       LRADC5_DATA
      000000B3H   SYMBOL    NUMBER   ---       MCU_PLL_CTL
      000000BCH   SYMBOL    NUMBER   ---       MCU_PLL_DEBUG_CTL
      000000BAH   SYMBOL    NUMBER   ---       MCU_PLL_SSC_CTL
      000000BBH   SYMBOL    NUMBER   ---       MCU_PLL_SSC_FSTEP
      000000F9H   SYMBOL    NUMBER   ---       MEMBANKCTL
      000000B4H   SYMBOL    NUMBER   ---       MEMCLKENCTL0
      000000ADH   SYMBOL    NUMBER   ---       MEMCLKSELCTL0
      000000AEH   SYMBOL    NUMBER   ---       MEMCLKSELCTL1
      000000C8H   SYMBOL    NUMBER   ---       MFP_CTL0
      000000C9H   SYMBOL    NUMBER   ---       MFP_CTL1
      000000CAH   SYMBOL    NUMBER   ---       MFP_CTL2
      000000CBH   SYMBOL    NUMBER   ---       MFP_CTL3
      000000CCH   SYMBOL    NUMBER   ---       MFP_CTL4
      000000CDH   SYMBOL    NUMBER   ---       MFP_CTL5
      000000CEH   SYMBOL    NUMBER   ---       MFP_CTL6
      000000CFH   SYMBOL    NUMBER   ---       MFP_CTL7
      000000D2H   SYMBOL    NUMBER   ---       MFP_CTL8
      000000ADH   SYMBOL    NUMBER   ---       MP3BITRATEH
      000000AEH   SYMBOL    NUMBER   ---       MP3BITRATEL
      000000B2H   SYMBOL    NUMBER   ---       MP3CTIMEH
      000000B3H   SYMBOL    NUMBER   ---       MP3CTIMEM
      000000B4H   SYMBOL    NUMBER   ---       MP3CTIMES
      000000ABH   SYMBOL    NUMBER   ---       MP3CTL
      000000ABH   SYMBOL    NUMBER   ---       MP3ENCCTL
      000000ACH   SYMBOL    NUMBER   ---       MP3ENCINFO
      000000BAH   SYMBOL    NUMBER   ---       MP3FILELEN1
      000000B9H   SYMBOL    NUMBER   ---       MP3FILELEN2
      000000B8H   SYMBOL    NUMBER   ---       MP3FILELEN3
      000000B5H   SYMBOL    NUMBER   ---       MP3FRAMENUMH
      000000B7H   SYMBOL    NUMBER   ---       MP3FRAMENUML
      000000B6H   SYMBOL    NUMBER   ---       MP3FRAMENUMM
      000000ACH   SYMBOL    NUMBER   ---       MP3HEADERINFO
      000000BBH   SYMBOL    NUMBER   ---       MP3HEADERSYNCTL
      000000A9H   SYMBOL    NUMBER   ---       MP3IE
      000000AAH   SYMBOL    NUMBER   ---       MP3IP
      000000AFH   SYMBOL    NUMBER   ---       MP3TTIMEH
      000000B0H   SYMBOL    NUMBER   ---       MP3TTIMEM
      000000B1H   SYMBOL    NUMBER   ---       MP3TTIMES
      000000A1H   SYMBOL    NUMBER   ---       MPAGE
      00000086H   SYMBOL    NUMBER   ---       MRCR1
      00000089H   SYMBOL    NUMBER   ---       MRCR2
      0000009FH   SYMBOL    NUMBER   ---       MRCR3
      0000008DH   SYMBOL    NUMBER   ---       MULTI_USED
      000000DCH   SYMBOL    NUMBER   ---       OTGCTRL
      000000DEH   SYMBOL    NUMBER   ---       OTGIEN
L251 LINKER/LOCATER V4.25                                                             12/13/2018  16:28:37  PAGE 26


      000000DAH   SYMBOL    NUMBER   ---       OTGIRQ
      000000DBH   SYMBOL    NUMBER   ---       OTGSTATE
      000000DDH   SYMBOL    NUMBER   ---       OTGSTATUS
      000000F5H   SYMBOL    NUMBER   ---       OTGTRIEN
      000000F6H   SYMBOL    NUMBER   ---       OTGTRIRQ
      00000097H   SYMBOL    NUMBER   ---       OUT0BC_HCIN0BC
      0000009EH   SYMBOL    NUMBER   ---       OUT2BCH_HCIN2BCH
      0000009FH   SYMBOL    NUMBER   ---       OUT2BCL_HCIN2BCL
      000000A3H   SYMBOL    NUMBER   ---       OUT2CS_HCIN2CS
      000000A2H   SYMBOL    NUMBER   ---       OUT2CTRL_HCIN2CTRL
      00000090H   SYMBOL    NUMBER   ---       OUTPCKCNTH
      00000091H   SYMBOL    NUMBER   ---       OUTPCKCNTL
      00000682H   SYMBOL    BIT      ---       OV
      00000680H   SYMBOL    BIT      ---       P
      000000A0H   SYMBOL    NUMBER   ---       P2
      000000D5H   SYMBOL    NUMBER   ---       PADDRV0
      000000D6H   SYMBOL    NUMBER   ---       PADDRV1
      000000D7H   SYMBOL    NUMBER   ---       PADDRV2
      000000D9H   SYMBOL    NUMBER   ---       PADDRV3
      000000DAH   SYMBOL    NUMBER   ---       PADDRV4
      000000D4H   SYMBOL    NUMBER   ---       PADPUPD
      00000090H   SYMBOL    NUMBER   ---       PAGEADDR0H
      00000091H   SYMBOL    NUMBER   ---       PAGEADDR0L
      00000092H   SYMBOL    NUMBER   ---       PAGEADDR1H
      00000093H   SYMBOL    NUMBER   ---       PAGEADDR1L
      00000094H   SYMBOL    NUMBER   ---       PAGEADDR2H
      00000095H   SYMBOL    NUMBER   ---       PAGEADDR2L
      00000098H   SYMBOL    NUMBER   ---       PAGEADDR3H
      00000099H   SYMBOL    NUMBER   ---       PAGEADDR3L
      0000009AH   SYMBOL    NUMBER   ---       PAGEADDR4H
      0000009BH   SYMBOL    NUMBER   ---       PAGEADDR4L
      0000009CH   SYMBOL    NUMBER   ---       PAGEADDR5H
      0000009DH   SYMBOL    NUMBER   ---       PAGEADDR5L
      0000009EH   SYMBOL    NUMBER   ---       PAGEADDR6H
      0000009FH   SYMBOL    NUMBER   ---       PAGEADDR6L
      000000A2H   SYMBOL    NUMBER   ---       PAGEADDR7H
      000000A3H   SYMBOL    NUMBER   ---       PAGEADDR7L
      000000D8H   SYMBOL    NUMBER   ---       PAGEADDR8H
      000000D9H   SYMBOL    NUMBER   ---       PAGEADDR8L
      000000DAH   SYMBOL    NUMBER   ---       PAGEADDR9H
      000000DBH   SYMBOL    NUMBER   ---       PAGEADDR9L
      000000B0H   SYMBOL    NUMBER   ---       PAGEADDRMASK0
      000000B1H   SYMBOL    NUMBER   ---       PAGEADDRMASK1
      000000B2H   SYMBOL    NUMBER   ---       PAGEADDRMASK2
      000000B3H   SYMBOL    NUMBER   ---       PAGEADDRMASK3
      000000B4H   SYMBOL    NUMBER   ---       PAGEADDRMASK4
      000000B5H   SYMBOL    NUMBER   ---       PAGEADDRMASK5
      000000B6H   SYMBOL    NUMBER   ---       PAGEADDRMASK6
      000000D2H   SYMBOL    NUMBER   ---       PAGEADDRMASK7
      000000D4H   SYMBOL    NUMBER   ---       PAGEADDRMASK8
      000000D5H   SYMBOL    NUMBER   ---       PAGEADDRMASK9
      000000F4H   SYMBOL    NUMBER   ---       PAGEMISSENTRYEX
      000000F5H   SYMBOL    NUMBER   ---       PAGEMISSENTRYH
      000000F6H   SYMBOL    NUMBER   ---       PAGEMISSENTRYL
      000000EBH   SYMBOL    NUMBER   ---       PA_APCTL
      000000EAH   SYMBOL    NUMBER   ---       PA_CTL
      000000E9H   SYMBOL    NUMBER   ---       PA_VOLUME
      00000087H   SYMBOL    NUMBER   ---       PCON
      000000BDH   SYMBOL    NUMBER   ---       PHYSICALADDRH
      000000BFH   SYMBOL    NUMBER   ---       PHYSICALADDRL
      00000090H   SYMBOL    NUMBER   ---       PMUADC_CTL
      000000D0H   SYMBOL    NUMBER   ---       PSW
      000000D1H   SYMBOL    NUMBER   ---       PSW1
      000000C3H   SYMBOL    NUMBER   ---       PWMCLKCTL
      000000AFH   SYMBOL    NUMBER   ---       PWMDUTY
L251 LINKER/LOCATER V4.25                                                             12/13/2018  16:28:37  PAGE 27


      000000CDH   SYMBOL    NUMBER   ---       RCHGAIN
      000000C8H   SYMBOL    NUMBER   ---       REDIRECTADDR0
      000000C9H   SYMBOL    NUMBER   ---       REDIRECTADDR1
      000000CAH   SYMBOL    NUMBER   ---       REDIRECTADDR2
      000000CBH   SYMBOL    NUMBER   ---       REDIRECTADDR3
      000000CCH   SYMBOL    NUMBER   ---       REDIRECTADDR4
      000000CDH   SYMBOL    NUMBER   ---       REDIRECTADDR5
      000000CEH   SYMBOL    NUMBER   ---       REDIRECTADDR6
      000000CFH   SYMBOL    NUMBER   ---       REDIRECTADDR7
      000000D6H   SYMBOL    NUMBER   ---       REDIRECTADDR8
      000000D7H   SYMBOL    NUMBER   ---       REDIRECTADDR9
      00000683H   SYMBOL    BIT      ---       RS0
      00000684H   SYMBOL    BIT      ---       RS1
      000000B3H   SYMBOL    NUMBER   ---       RTCALMH
      000000B2H   SYMBOL    NUMBER   ---       RTCALMM
      000000B1H   SYMBOL    NUMBER   ---       RTCALMS
      000000BCH   SYMBOL    NUMBER   ---       RTCRDM0
      000000BDH   SYMBOL    NUMBER   ---       RTCRDM1
      000000C8H   SYMBOL    NUMBER   ---       RTCRDM10
      000000C9H   SYMBOL    NUMBER   ---       RTCRDM11
      000000CAH   SYMBOL    NUMBER   ---       RTCRDM12
      000000CBH   SYMBOL    NUMBER   ---       RTCRDM13
      000000CCH   SYMBOL    NUMBER   ---       RTCRDM14
      000000CDH   SYMBOL    NUMBER   ---       RTCRDM15
      000000CEH   SYMBOL    NUMBER   ---       RTCRDM16
      000000CFH   SYMBOL    NUMBER   ---       RTCRDM17
      000000D2H   SYMBOL    NUMBER   ---       RTCRDM18
      000000D3H   SYMBOL    NUMBER   ---       RTCRDM19
      000000BFH   SYMBOL    NUMBER   ---       RTCRDM2
      000000D4H   SYMBOL    NUMBER   ---       RTCRDM20
      000000D5H   SYMBOL    NUMBER   ---       RTCRDM21
      000000D6H   SYMBOL    NUMBER   ---       RTCRDM22
      000000C1H   SYMBOL    NUMBER   ---       RTCRDM3
      000000C2H   SYMBOL    NUMBER   ---       RTCRDM4
      000000C3H   SYMBOL    NUMBER   ---       RTCRDM5
      000000C4H   SYMBOL    NUMBER   ---       RTCRDM6
      000000C5H   SYMBOL    NUMBER   ---       RTCRDM7
      000000C6H   SYMBOL    NUMBER   ---       RTCRDM8
      000000C7H   SYMBOL    NUMBER   ---       RTCRDM9
      000000B4H   SYMBOL    NUMBER   ---       RTCRUPD
      000000AEH   SYMBOL    NUMBER   ---       RTCTIMED
      000000ADH   SYMBOL    NUMBER   ---       RTCTIMEH
      000000ACH   SYMBOL    NUMBER   ---       RTCTIMEMINT
      000000AFH   SYMBOL    NUMBER   ---       RTCTIMEMON
      000000ABH   SYMBOL    NUMBER   ---       RTCTIMES
      000000B0H   SYMBOL    NUMBER   ---       RTCTIMEY
      0000009DH   SYMBOL    NUMBER   ---       RTCVDD_RESERVED
      000000A9H   SYMBOL    NUMBER   ---       RTC_CTL0
      000000AAH   SYMBOL    NUMBER   ---       RTC_CTL1
      000000ACH   SYMBOL    NUMBER   ---       SDCLKCTL
      00000099H   SYMBOL    NUMBER   ---       SD_BLK_NUM
      00000097H   SYMBOL    NUMBER   ---       SD_BLK_SIZE_H
      00000098H   SYMBOL    NUMBER   ---       SD_BLK_SIZE_L
      0000009AH   SYMBOL    NUMBER   ---       SD_CLK_CTL
      00000090H   SYMBOL    NUMBER   ---       SD_CMD
      00000091H   SYMBOL    NUMBER   ---       SD_CMD_ARGRSP
      0000009DH   SYMBOL    NUMBER   ---       SD_DATA_FIFO
      000000AEH   SYMBOL    NUMBER   ---       SD_DBG_CTL
      0000009CH   SYMBOL    NUMBER   ---       SD_INT_CTL
      0000009BH   SYMBOL    NUMBER   ---       SD_PAD_CTL
      00000092H   SYMBOL    NUMBER   ---       SD_RSP_POIN
      00000094H   SYMBOL    NUMBER   ---       SD_STATE
      00000093H   SYMBOL    NUMBER   ---       SD_TF_CTL
      0000009EH   SYMBOL    NUMBER   ---       SD_TIMEOUT_CTL
      000000ADH   SYMBOL    NUMBER   ---       SD_TIMING_CTL
L251 LINKER/LOCATER V4.25                                                             12/13/2018  16:28:37  PAGE 28


      000000BBH   SYMBOL    NUMBER   ---       SETUPDAT0
      000000BCH   SYMBOL    NUMBER   ---       SETUPDAT1
      000000BDH   SYMBOL    NUMBER   ---       SETUPDAT2
      000000BFH   SYMBOL    NUMBER   ---       SETUPDAT3
      000000C1H   SYMBOL    NUMBER   ---       SETUPDAT4
      000000C2H   SYMBOL    NUMBER   ---       SETUPDAT5
      000000C3H   SYMBOL    NUMBER   ---       SETUPDAT6
      000000C4H   SYMBOL    NUMBER   ---       SETUPDAT7
      00000080H   SYMBOL    NUMBER   ---       SFR_BANK
      000000AFH   SYMBOL    NUMBER   ---       SHORTPCKIRQ
      000000ABH   SYMBOL    NUMBER   ---       SOFTCTL
      000000A9H   SYMBOL    NUMBER   ---       SOFTIE
      000000AAH   SYMBOL    NUMBER   ---       SOFTIP
      00000081H   SYMBOL    NUMBER   ---       SP
      000000B5H   SYMBOL    NUMBER   ---       SPDIFRX_CNT_WR0
      000000B6H   SYMBOL    NUMBER   ---       SPDIFRX_CNT_WR1
      000000B7H   SYMBOL    NUMBER   ---       SPDIFRX_CNT_WR2
      000000B2H   SYMBOL    NUMBER   ---       SPDIFRX_CSTAT
      000000B0H   SYMBOL    NUMBER   ---       SPDIFRX_CTL
      000000B4H   SYMBOL    NUMBER   ---       SPDIFRX_DAT
      000000B3H   SYMBOL    NUMBER   ---       SPDIFRX_DEBUG
      000000B1H   SYMBOL    NUMBER   ---       SPDIFRX_STAT
      000000BEH   SYMBOL    NUMBER   ---       SPH
      000000CAH   SYMBOL    NUMBER   ---       SPICLKCTL
      000000A2H   SYMBOL    NUMBER   ---       SPI_BCH
      0000009FH   SYMBOL    NUMBER   ---       SPI_BCL
      0000009CH   SYMBOL    NUMBER   ---       SPI_CLKDIV
      00000099H   SYMBOL    NUMBER   ---       SPI_CTL
      000000A3H   SYMBOL    NUMBER   ---       SPI_DEBUG
      0000009AH   SYMBOL    NUMBER   ---       SPI_DRQ
      000000C8H   SYMBOL    NUMBER   ---       SPI_RAND
      0000009EH   SYMBOL    NUMBER   ---       SPI_RXDAT
      000000C9H   SYMBOL    NUMBER   ---       SPI_SEED0
      000000CAH   SYMBOL    NUMBER   ---       SPI_SEED1
      0000009BH   SYMBOL    NUMBER   ---       SPI_STA
      0000009DH   SYMBOL    NUMBER   ---       SPI_TXDAT
      00000081H   SYMBOL    NUMBER   ---       SPL
      000000CCH   SYMBOL    NUMBER   ---       SRSCTL0
      000000CDH   SYMBOL    NUMBER   ---       SRSCTL1
      000000CEH   SYMBOL    NUMBER   ---       SRSCTL2
      000000BCH   SYMBOL    NUMBER   ---       SYNHEADERDATA1
      000000BDH   SYMBOL    NUMBER   ---       SYNHEADERDATA2
      0000009BH   SYMBOL    NUMBER   ---       SYSTEM_CTL
      0000009CH   SYMBOL    NUMBER   ---       SYSTEM_ONOFF
      000000FCH   SYMBOL    NUMBER   ---       TESTCOUNTERBYTE0
      000000FDH   SYMBOL    NUMBER   ---       TESTCOUNTERBYTE1
      000000FEH   SYMBOL    NUMBER   ---       TESTCOUNTERBYTE2
      000000FFH   SYMBOL    NUMBER   ---       TESTCOUNTERBYTE3
      000000F1H   SYMBOL    NUMBER   ---       TESTCOUNTERBYTE4
      0000009AH   SYMBOL    NUMBER   ---       TEST_CTL
      000000B7H   SYMBOL    NUMBER   ---       TIMERHB
      000000B5H   SYMBOL    NUMBER   ---       TIMERLB
      000000B6H   SYMBOL    NUMBER   ---       TIMERMB
      000000A2H   SYMBOL    NUMBER   ---       TK_AUTO_HIGHTH_H
      000000A3H   SYMBOL    NUMBER   ---       TK_AUTO_HIGHTH_L
      0000009DH   SYMBOL    NUMBER   ---       TK_AUTO_LOWTH_H
      0000009EH   SYMBOL    NUMBER   ---       TK_AUTO_LOWTH_L
      0000009AH   SYMBOL    NUMBER   ---       TK_BL_CAL_TH
      0000009CH   SYMBOL    NUMBER   ---       TK_BUCKET_TH
      00000094H   SYMBOL    NUMBER   ---       TK_DB_CTL
      000000DAH   SYMBOL    NUMBER   ---       TK_DEBUG
      00000090H   SYMBOL    NUMBER   ---       TK_EN_CTL
      00000091H   SYMBOL    NUMBER   ---       TK_FUN_CTL
      00000092H   SYMBOL    NUMBER   ---       TK_IRQ_PD
      000000CAH   SYMBOL    NUMBER   ---       TK_KEY0_BL_H
L251 LINKER/LOCATER V4.25                                                             12/13/2018  16:28:37  PAGE 29


      000000CCH   SYMBOL    NUMBER   ---       TK_KEY0_BL_L
      000000AEH   SYMBOL    NUMBER   ---       TK_KEY0_DATH
      000000AFH   SYMBOL    NUMBER   ---       TK_KEY0_DATL
      000000A4H   SYMBOL    NUMBER   ---       TK_KEY0_IDA_CTL
      000000BCH   SYMBOL    NUMBER   ---       TK_KEY0_RAWH
      000000BDH   SYMBOL    NUMBER   ---       TK_KEY0_RAWL
      000000CDH   SYMBOL    NUMBER   ---       TK_KEY1_BL_H
      000000CEH   SYMBOL    NUMBER   ---       TK_KEY1_BL_L
      000000B0H   SYMBOL    NUMBER   ---       TK_KEY1_DATH
      000000B1H   SYMBOL    NUMBER   ---       TK_KEY1_DATL
      000000A5H   SYMBOL    NUMBER   ---       TK_KEY1_IDA_CTL
      000000BFH   SYMBOL    NUMBER   ---       TK_KEY1_RAWH
      000000C1H   SYMBOL    NUMBER   ---       TK_KEY1_RAWL
      000000D2H   SYMBOL    NUMBER   ---       TK_KEY2_BL_H
      000000D3H   SYMBOL    NUMBER   ---       TK_KEY2_BL_L
      000000B2H   SYMBOL    NUMBER   ---       TK_KEY2_DATH
      000000B3H   SYMBOL    NUMBER   ---       TK_KEY2_DATL
      000000A6H   SYMBOL    NUMBER   ---       TK_KEY2_IDA_CTL
      000000C2H   SYMBOL    NUMBER   ---       TK_KEY2_RAWH
      000000C3H   SYMBOL    NUMBER   ---       TK_KEY2_RAWL
      000000D4H   SYMBOL    NUMBER   ---       TK_KEY3_BL_H
      000000D5H   SYMBOL    NUMBER   ---       TK_KEY3_BL_L
      000000B4H   SYMBOL    NUMBER   ---       TK_KEY3_DATH
      000000B5H   SYMBOL    NUMBER   ---       TK_KEY3_DATL
      000000A9H   SYMBOL    NUMBER   ---       TK_KEY3_IDA_CTL
      000000C4H   SYMBOL    NUMBER   ---       TK_KEY3_RAWH
      000000C5H   SYMBOL    NUMBER   ---       TK_KEY3_RAWL
      000000D6H   SYMBOL    NUMBER   ---       TK_KEY4_BL_H
      000000D7H   SYMBOL    NUMBER   ---       TK_KEY4_BL_L
      000000B6H   SYMBOL    NUMBER   ---       TK_KEY4_DATH
      000000B7H   SYMBOL    NUMBER   ---       TK_KEY4_DATL
      000000AAH   SYMBOL    NUMBER   ---       TK_KEY4_IDA_CTL
      000000C6H   SYMBOL    NUMBER   ---       TK_KEY4_RAWH
      000000C7H   SYMBOL    NUMBER   ---       TK_KEY4_RAWL
      000000D8H   SYMBOL    NUMBER   ---       TK_KEY5_BL_H
      000000D9H   SYMBOL    NUMBER   ---       TK_KEY5_BL_L
      000000B8H   SYMBOL    NUMBER   ---       TK_KEY5_DATH
      000000B9H   SYMBOL    NUMBER   ---       TK_KEY5_DATL
      000000ABH   SYMBOL    NUMBER   ---       TK_KEY5_IDA_CTL
      000000C8H   SYMBOL    NUMBER   ---       TK_KEY5_RAWH
      000000C9H   SYMBOL    NUMBER   ---       TK_KEY5_RAWL
      0000009BH   SYMBOL    NUMBER   ---       TK_NOISE_TH
      00000093H   SYMBOL    NUMBER   ---       TK_PRESS_STA
      00000099H   SYMBOL    NUMBER   ---       TK_PRESS_TH
      00000095H   SYMBOL    NUMBER   ---       TK_PWM_CNTH
      00000097H   SYMBOL    NUMBER   ---       TK_PWM_CNTL
      000000BAH   SYMBOL    NUMBER   ---       TK_RAW_PD
      000000ADH   SYMBOL    NUMBER   ---       TK_UPDAT_PD
      00000090H   SYMBOL    NUMBER   ---       UART_BR
      00000092H   SYMBOL    NUMBER   ---       UART_CTL
      00000098H   SYMBOL    NUMBER   ---       UART_DEBUG
      00000093H   SYMBOL    NUMBER   ---       UART_DRQ
      00000091H   SYMBOL    NUMBER   ---       UART_MODE
      00000097H   SYMBOL    NUMBER   ---       UART_RXDAT
      00000094H   SYMBOL    NUMBER   ---       UART_STA
      00000095H   SYMBOL    NUMBER   ---       UART_TXDAT
      00000681H   SYMBOL    BIT      ---       UD
      00000086H   SYMBOL    NUMBER   ---       UDMAM
      000000CBH   SYMBOL    NUMBER   ---       USBCTRL_STUS
      000000EBH   SYMBOL    NUMBER   ---       USBEIRQ
      000000AEH   SYMBOL    NUMBER   ---       USBIEN_HCUSBIEN
      000000ADH   SYMBOL    NUMBER   ---       USBIRQ_HCUSBIRQ
      00000093H   SYMBOL    NUMBER   ---       USBSTATUS
      000000F7H   SYMBOL    NUMBER   ---       USB_EFUSE_REF
      00000095H   SYMBOL    NUMBER   ---       USB_PHYCTRL
L251 LINKER/LOCATER V4.25                                                             12/13/2018  16:28:37  PAGE 30


      000000EFH   SYMBOL    NUMBER   ---       VDCTRL
      00000099H   SYMBOL    NUMBER   ---       VDD_RESERVED
      000000F1H   SYMBOL    NUMBER   ---       VDSTAT
      000000BBH   SYMBOL    NUMBER   ---       VIRTUALADDRH
      000000BCH   SYMBOL    NUMBER   ---       VIRTUALADDRL
      00000089H   SYMBOL    NUMBER   ---       VOUT_CTL
      000000B5H   SYMBOL    NUMBER   ---       WAVBLOCKNUMH
      000000B7H   SYMBOL    NUMBER   ---       WAVBLOCKNUML
      000000B6H   SYMBOL    NUMBER   ---       WAVBLOCKNUMM
      000000B2H   SYMBOL    NUMBER   ---       WAVCTIMEH
      000000B3H   SYMBOL    NUMBER   ---       WAVCTIMEM
      000000B4H   SYMBOL    NUMBER   ---       WAVCTIMES
      000000ABH   SYMBOL    NUMBER   ---       WAVCTL
      000000ABH   SYMBOL    NUMBER   ---       WAVENCCTL
      000000ACH   SYMBOL    NUMBER   ---       WAVENCINFO
      000000ACH   SYMBOL    NUMBER   ---       WAVHEADERINFO1
      000000ADH   SYMBOL    NUMBER   ---       WAVHEADERINFO2
      000000A9H   SYMBOL    NUMBER   ---       WAVIE
      000000AAH   SYMBOL    NUMBER   ---       WAVIP
      000000AFH   SYMBOL    NUMBER   ---       WAVTTIMEH
      000000B0H   SYMBOL    NUMBER   ---       WAVTTIMEM
      000000B1H   SYMBOL    NUMBER   ---       WAVTTIMES
      000000B8H   SYMBOL    NUMBER   ---       WDCTL
      000000ADH   SYMBOL    NUMBER   ---       WMABITRATEH
      000000AEH   SYMBOL    NUMBER   ---       WMABITRATEL
      000000B2H   SYMBOL    NUMBER   ---       WMACTIMEH
      000000B3H   SYMBOL    NUMBER   ---       WMACTIMEM
      000000B4H   SYMBOL    NUMBER   ---       WMACTIMES
      000000ABH   SYMBOL    NUMBER   ---       WMACTL
      000000ACH   SYMBOL    NUMBER   ---       WMAHEADERINFO
      000000A9H   SYMBOL    NUMBER   ---       WMAIE
      000000AAH   SYMBOL    NUMBER   ---       WMAIP
      000000B5H   SYMBOL    NUMBER   ---       WMAPACKNUMH
      000000B7H   SYMBOL    NUMBER   ---       WMAPACKNUML
      000000B6H   SYMBOL    NUMBER   ---       WMAPACKNUMM
      000000B8H   SYMBOL    NUMBER   ---       WMAPACKSIZEH
      000000BAH   SYMBOL    NUMBER   ---       WMAPACKSIZEL
      000000B9H   SYMBOL    NUMBER   ---       WMAPACKSIZEM
      000000AFH   SYMBOL    NUMBER   ---       WMATTIMEH
      000000B0H   SYMBOL    NUMBER   ---       WMATTIMEM
      000000B1H   SYMBOL    NUMBER   ---       WMATTIMES

      ---         MODULE    ---      ---       UART_MSG
      00ED58D8H   PUBLIC    ECODE    ---       uart_charge_count??
      00ED5823H   PUBLIC    ECODE    ---       uart_send_msg_hex??
      00ED58F3H   PUBLIC    ECODE    ---       delay_timer_count??
      00ED590EH   PUBLIC    ECODE    ---       deal_send_msg??
      00ED58BDH   PUBLIC    ECODE    ---       uart_timer_count??
      00ED5875H   PUBLIC    ECODE    ---       send_first_msg??
      00ED57FCH   PUBLIC    ECODE    ---       uart_send_msg??
      00ED59ADH   PUBLIC    HCONST   ---       uart_start_block
      000000A9H   SFRSYM    DATA     BYTE      WAVIE
      0000009AH   SFRSYM    DATA     BYTE      DAC_CH1_SRFT_CTL0
      00000094H   SFRSYM    DATA     BYTE      SD_STATE
      00000092H   SFRSYM    DATA     BYTE      DAC_CH0_SRFT_CTL0
      000000F4H   SFRSYM    DATA     BYTE      ADC_GAIN1
      000000DAH   SFRSYM    DATA     BYTE      Otgirq
      000000F3H   SFRSYM    DATA     BYTE      ADC_GAIN0
      000000ACH   SFRSYM    DATA     BYTE      MP3EncInfo
      000000B7H   SFRSYM    DATA     BYTE      LOSC_CTL
      000000E9H   SFRSYM    DATA     BYTE      bist_info2
      000000ABH   SFRSYM    DATA     BYTE      MP3Ctl
      00000086H   SFRSYM    DATA     BYTE      UDMAM
      000000D7H   SFRSYM    DATA     BYTE      PADDRV2
      000000E7H   SFRSYM    DATA     BYTE      bist_info1
L251 LINKER/LOCATER V4.25                                                             12/13/2018  16:28:37  PAGE 31


      000000A9H   SFRSYM    DATA     BYTE      WMAIE
      000000ADH   SFRSYM    DATA     BYTE      TK_UPDAT_PD
      00000095H   SFRSYM    DATA     BYTE      USB_PHYCTRL
      000000EEH   SFRSYM    DATA     BYTE      DBGMODE
      000000B3H   SFRSYM    DATA     BYTE      MCU_PLL_CTL
      000000C8H   SFRSYM    DATA     BYTE      SPI_RAND
      000000BDH   SFRSYM    DATA     BYTE      ADC_DAC_CLK_CTL
      000000D7H   SFRSYM    DATA     BYTE      CTCCTL2
      000000F5H   SFRSYM    DATA     BYTE      OTGTRIEN
      000000CFH   SFRSYM    DATA     BYTE      RedirectAddr7
      000000B3H   SFRSYM    DATA     BYTE      SPDIFRX_DEBUG
      000000CEH   SFRSYM    DATA     BYTE      RedirectAddr6
      000000CDH   SFRSYM    DATA     BYTE      RedirectAddr5
      000000AAH   SFRSYM    DATA     BYTE      MP3IP
      00000080H   SFRSYM    DATA     BYTE      SFR_BANK
      000000CCH   SFRSYM    DATA     BYTE      RedirectAddr4
      000000DEH   SFRSYM    DATA     BYTE      Otgien
      000000CBH   SFRSYM    DATA     BYTE      RedirectAddr3
      0000009FH   SFRSYM    DATA     BYTE      MRCR3
      000000DAH   SFRSYM    DATA     BYTE      TK_DEBUG
      000000CAH   SFRSYM    DATA     BYTE      RedirectAddr2
      00000089H   SFRSYM    DATA     BYTE      MRCR2
      000000CBH   SFRSYM    DATA     BYTE      KaraokeCtl
      000000EBH   SFRSYM    DATA     BYTE      PA_APCTL
      000000B0H   SFRSYM    DATA     BYTE      SPDIFRX_CTL
      000000C9H   SFRSYM    DATA     BYTE      RedirectAddr1
      00000086H   SFRSYM    DATA     BYTE      MRCR1
      0000009EH   SFRSYM    DATA     BYTE      SD_TIMEOUT_CTL
      000000C8H   SFRSYM    DATA     BYTE      RedirectAddr0
      000000B4H   SFRSYM    DATA     BYTE      MEMCLKENCTL0
      000000A6H   SFRSYM    DATA     BYTE      IR_STA
      000000FCH   SFRSYM    DATA     BYTE      ADC_FIFOCTL1
      00000093H   SFRSYM    DATA     BYTE      AuCodecFIFOCtl
      000000DCH   SFRSYM    DATA     BYTE      Otgctrl
      000000F8H   SFRSYM    DATA     BYTE      ADC_FIFOCTL0
      00000092H   SFRSYM    DATA     BYTE      TK_IRQ_PD
      000000DEH   SFRSYM    DATA     BYTE      DAC_CH1_FIFO_CTL1
      000000D9H   SFRSYM    DATA     BYTE      DAC_CH0_FIFO_CTL1
      000000DDH   SFRSYM    DATA     BYTE      DAC_CH1_FIFO_CTL0
      000000AAH   SFRSYM    DATA     BYTE      RTC_CTL1
      000000A9H   SFRSYM    DATA     BYTE      MP3IE
      000000BAH   SFRSYM    DATA     BYTE      TK_RAW_PD
      000000AFH   SFRSYM    DATA     BYTE      SHORTPCKIRQ
      000000A5H   SFRSYM    DATA     BYTE      IR_CTL
      000000D8H   SFRSYM    DATA     BYTE      DAC_CH0_FIFO_CTL0
      000000D8H   SFRSYM    DATA     BYTE      EXTINT
      000000BBH   SFRSYM    DATA     BYTE      MCU_PLL_SSC_FSTEP
      000000A9H   SFRSYM    DATA     BYTE      RTC_CTL0
      00000089H   SFRSYM    DATA     BYTE      ACC_CTRL
      000000A2H   SFRSYM    DATA     BYTE      ADC_SRFT_CTL0
      000000CEH   SFRSYM    DATA     BYTE      MFP_CTL6
      00000094H   SFRSYM    DATA     BYTE      DPDMCTRL
      000000CDH   SFRSYM    DATA     BYTE      MFP_CTL5
      000000EDH   SFRSYM    DATA     BYTE      HCINCTRL
      0000008AH   SFRSYM    DATA     BYTE      LCD_MODE
      000000CAH   SFRSYM    DATA     BYTE      MFP_CTL2
      00000093H   SFRSYM    DATA     BYTE      TK_PRESS_STA
      000000B8H   SFRSYM    DATA     BYTE      HCL_CLK_CTL
      000000ACH   SFRSYM    DATA     BYTE      SDCLKCTL
      00000090H   SFRSYM    DATA     BYTE      TK_EN_CTL
      00000093H   SFRSYM    DATA     BYTE      SD_TF_CTL
      000000B0H   SFRSYM    DATA     BYTE      RTCTimeY
      000000A6H   SFRSYM    DATA     BYTE      In3cs_hcout3cs
      000000DDH   SFRSYM    DATA     BYTE      Otgstatus
      000000ECH   SFRSYM    DATA     BYTE      DDV_CTL0
L251 LINKER/LOCATER V4.25                                                             12/13/2018  16:28:37  PAGE 32


      00000093H   SFRSYM    DATA     BYTE      USBSTATUS
      000000A3H   SFRSYM    DATA     BYTE      Out2cs_hcin2cs
      000000C5H   SFRSYM    DATA     BYTE      GPIOGDAT
      000000EFH   SFRSYM    DATA     BYTE      VDCTRL
      000000BFH   SFRSYM    DATA     BYTE      GPIOFDAT
      000000C0H   SFRSYM    DATA     BYTE      AIF
      000000CEH   SFRSYM    DATA     BYTE      SRSCtl2
      0000009DH   SFRSYM    DATA     BYTE      In1cs_hcout1cs
      000000B9H   SFRSYM    DATA     BYTE      GPIOEDAT
      000000E8H   SFRSYM    DATA     BYTE      AIE
      000000CDH   SFRSYM    DATA     BYTE      SRSCtl1
      000000B4H   SFRSYM    DATA     BYTE      GPIODDAT
      000000CCH   SFRSYM    DATA     BYTE      SRSCtl0
      000000AFH   SFRSYM    DATA     BYTE      GPIOCDAT
      000000ECH   SFRSYM    DATA     BYTE      AUTONAKCTRL
      000000AAH   SFRSYM    DATA     BYTE      GPIOBDAT
      000000A4H   SFRSYM    DATA     BYTE      GPIOADAT
      000000D3H   SFRSYM    DATA     BYTE      AD_Select
      00000099H   SFRSYM    DATA     BYTE      Ep0cs_hcep0cs
      000000C4H   SFRSYM    DATA     BYTE      AECLKCTL
      000000D5H   SFRSYM    DATA     BYTE      PageAddrMask9
      000000F7H   SFRSYM    DATA     BYTE      USB_Efuse_Ref
      000000F9H   SFRSYM    DATA     BYTE      MemBankCtl
      000000D4H   SFRSYM    DATA     BYTE      PageAddrMask8
      00000091H   SFRSYM    DATA     BYTE      UART_MODE
      000000E3H   SFRSYM    DATA     BYTE      I2S_CTL1
      000000D2H   SFRSYM    DATA     BYTE      PageAddrMask7
      000000ABH   SFRSYM    DATA     BYTE      SoftCtl
      000000F3H   SFRSYM    DATA     BYTE      BKDOOR
      000000E2H   SFRSYM    DATA     BYTE      I2S_CTL0
      000000B6H   SFRSYM    DATA     BYTE      PageAddrMask6
      0000009CH   SFRSYM    DATA     BYTE      SYSTEM_ONOFF
      000000ACH   SFRSYM    DATA     BYTE      WMAHeaderInfo
      000000B5H   SFRSYM    DATA     BYTE      PageAddrMask5
      000000ADH   SFRSYM    DATA     BYTE      Usbirq_hcusbirq
      000000B1H   SFRSYM    DATA     BYTE      SPDIFRX_STAT
      000000B4H   SFRSYM    DATA     BYTE      PageAddrMask4
      00000088H   SFRSYM    DATA     BYTE      IF0
      000000B3H   SFRSYM    DATA     BYTE      PageAddrMask3
      000000B9H   SFRSYM    DATA     BYTE      CTCCTL
      000000CFH   SFRSYM    DATA     BYTE      Clkgate
      000000A8H   SFRSYM    DATA     BYTE      IE0
      000000B2H   SFRSYM    DATA     BYTE      PageAddrMask2
      000000A3H   SFRSYM    DATA     BYTE      EFUSE_CTL
      000000BAH   SFRSYM    DATA     BYTE      MCU_PLL_SSC_CTL
      000000D2H   SFRSYM    DATA     BYTE      Fifoctrl
      000000FDH   SFRSYM    DATA     BYTE      ADC_CTL1
      000000B1H   SFRSYM    DATA     BYTE      PageAddrMask1
      000000BCH   SFRSYM    DATA     BYTE      MCU_PLL_DEBUG_CTL
      000000AFH   SFRSYM    DATA     BYTE      PWMDUTY
      00000090H   SFRSYM    DATA     BYTE      AuCodecCtl
      000000F1H   SFRSYM    DATA     BYTE      ADC_CTL0
      000000F2H   SFRSYM    DATA     BYTE      AINOP_CTL
      000000B0H   SFRSYM    DATA     BYTE      PageAddrMask0
      0000008AH   SFRSYM    DATA     BYTE      LDOPD_CTL
      000000BDH   SFRSYM    DATA     BYTE      SynHeaderData2
      000000AAH   SFRSYM    DATA     BYTE      SoftIP
      000000C7H   SFRSYM    DATA     BYTE      Ep03tokirq
      000000AEH   SFRSYM    DATA     BYTE      MEMCLKSELCTL1
      000000BCH   SFRSYM    DATA     BYTE      SynHeaderData1
      0000009BH   SFRSYM    DATA     BYTE      SPI_STA
      000000A3H   SFRSYM    DATA     BYTE      SPI_DEBUG
      00000095H   SFRSYM    DATA     BYTE      AuCodecDebug2
      0000009AH   SFRSYM    DATA     BYTE      SPI_DRQ
      000000DBH   SFRSYM    DATA     BYTE      DBGSEL
L251 LINKER/LOCATER V4.25                                                             12/13/2018  16:28:37  PAGE 33


      000000C6H   SFRSYM    DATA     BYTE      BEPCtl5
      000000C6H   SFRSYM    DATA     BYTE      GPIOGPUEN
      00000087H   SFRSYM    DATA     BYTE      PCON
      000000C5H   SFRSYM    DATA     BYTE      BEPCtl4
      00000099H   SFRSYM    DATA     BYTE      SPI_CTL
      000000C1H   SFRSYM    DATA     BYTE      GPIOFPUEN
      000000C4H   SFRSYM    DATA     BYTE      BEPCtl3
      000000BAH   SFRSYM    DATA     BYTE      GPIOEPUEN
      000000C3H   SFRSYM    DATA     BYTE      BEPCtl2
      000000B5H   SFRSYM    DATA     BYTE      GPIODPUEN
      000000C2H   SFRSYM    DATA     BYTE      BEPCtl1
      00000091H   SFRSYM    DATA     BYTE      TK_FUN_CTL
      000000B0H   SFRSYM    DATA     BYTE      GPIOCPUEN
      000000ACH   SFRSYM    DATA     BYTE      MP3HeaderInfo
      000000A9H   SFRSYM    DATA     BYTE      SoftIE
      000000ABH   SFRSYM    DATA     BYTE      GPIOBPUEN
      0000009BH   SFRSYM    DATA     BYTE      SYSTEM_CTL
      000000ABH   SFRSYM    DATA     BYTE      WAVEncCtl
      000000D3H   SFRSYM    DATA     BYTE      Hcportctrl
      000000A5H   SFRSYM    DATA     BYTE      GPIOAPUEN
      000000F6H   SFRSYM    DATA     BYTE      IFDebug1
      000000C9H   SFRSYM    DATA     BYTE      LED_SEGLCDCLKCTL
      000000F5H   SFRSYM    DATA     BYTE      IFDebug0
      000000A4H   SFRSYM    DATA     BYTE      EFUSE0
      000000C2H   SFRSYM    DATA     BYTE      CPUCLKCTL
      0000009CH   SFRSYM    DATA     BYTE      SD_INT_CTL
      000000C8H   SFRSYM    DATA     BYTE      Ep03tokien
      000000F8H   SFRSYM    DATA     BYTE      AIPL
      000000E9H   SFRSYM    DATA     BYTE      DBGDOE
      000000E6H   SFRSYM    DATA     BYTE      DBGCOE
      00000095H   SFRSYM    DATA     BYTE      UART_TXDAT
      000000E4H   SFRSYM    DATA     BYTE      DBGBOE
      000000C4H   SFRSYM    DATA     BYTE      GPIOGINEN
      000000E2H   SFRSYM    DATA     BYTE      DBGAOE
      000000F7H   SFRSYM    DATA     BYTE      AIPH
      000000BDH   SFRSYM    DATA     BYTE      GPIOFINEN
      000000C5H   SFRSYM    DATA     BYTE      FixAddr3H
      000000B8H   SFRSYM    DATA     BYTE      GPIOEINEN
      000000C2H   SFRSYM    DATA     BYTE      FixAddr2H
      00000091H   SFRSYM    DATA     BYTE      DMA4IP
      000000AEH   SFRSYM    DATA     BYTE      Usbien_hcusbien
      000000B3H   SFRSYM    DATA     BYTE      GPIODINEN
      000000C7H   SFRSYM    DATA     BYTE      GPIOGPDEN
      000000BBH   SFRSYM    DATA     BYTE      FixAddr1H
      0000008DH   SFRSYM    DATA     BYTE      MULTI_USED
      00000091H   SFRSYM    DATA     BYTE      DMA3IP
      000000AEH   SFRSYM    DATA     BYTE      GPIOCINEN
      000000C2H   SFRSYM    DATA     BYTE      GPIOFPDEN
      00000091H   SFRSYM    DATA     BYTE      DMA2IP
      000000A9H   SFRSYM    DATA     BYTE      GPIOBINEN
      000000BBH   SFRSYM    DATA     BYTE      GPIOEPDEN
      000000E5H   SFRSYM    DATA     BYTE      DBGBIE
      00000091H   SFRSYM    DATA     BYTE      DMA1IP
      000000EBH   SFRSYM    DATA     BYTE      USBEIRQ
      000000A3H   SFRSYM    DATA     BYTE      GPIOAINEN
      000000B6H   SFRSYM    DATA     BYTE      GPIODPDEN
      000000E3H   SFRSYM    DATA     BYTE      DBGAIE
      00000091H   SFRSYM    DATA     BYTE      DMA0IP
      000000B1H   SFRSYM    DATA     BYTE      GPIOCPDEN
      00000094H   SFRSYM    DATA     BYTE      DMA4CTL0
      000000ACH   SFRSYM    DATA     BYTE      GPIOBPDEN
      000000E2H   SFRSYM    DATA     BYTE      bist_en2
      00000094H   SFRSYM    DATA     BYTE      DMA3CTL0
      000000A2H   SFRSYM    DATA     BYTE      SPI_BCH
      000000A6H   SFRSYM    DATA     BYTE      GPIOAPDEN
L251 LINKER/LOCATER V4.25                                                             12/13/2018  16:28:37  PAGE 34


      000000E1H   SFRSYM    DATA     BYTE      bist_en1
      00000094H   SFRSYM    DATA     BYTE      DMA2CTL0
      00000094H   SFRSYM    DATA     BYTE      DMA1CTL0
      00000094H   SFRSYM    DATA     BYTE      DMA0CTL0
      0000009AH   SFRSYM    DATA     BYTE      SD_CLK_CTL
      0000009EH   SFRSYM    DATA     BYTE      EXTMEM_CTL
      000000F5H   SFRSYM    DATA     BYTE      ADC_TUNE0
      000000B8H   SFRSYM    DATA     BYTE      IPL0
      00000092H   SFRSYM    DATA     BYTE      DMA4IE
      000000ACH   SFRSYM    DATA     BYTE      WAVEncInfo
      000000A5H   SFRSYM    DATA     BYTE      In3ctrl_hcout3ctrl
      00000092H   SFRSYM    DATA     BYTE      DMA3IE
      00000089H   SFRSYM    DATA     BYTE      VOUT_CTL
      00000092H   SFRSYM    DATA     BYTE      DMA2IE
      000000ABH   SFRSYM    DATA     BYTE      WAVCtl
      000000A2H   SFRSYM    DATA     BYTE      Out2ctrl_hcin2ctrl
      000000CBH   SFRSYM    DATA     BYTE      UsbCTRL_STUS
      00000092H   SFRSYM    DATA     BYTE      DMA1IE
      000000B7H   SFRSYM    DATA     BYTE      IPH0
      0000008BH   SFRSYM    DATA     BYTE      BDG_CTL
      00000092H   SFRSYM    DATA     BYTE      DMA0IE
      0000009BH   SFRSYM    DATA     BYTE      SD_PAD_CTL
      0000009CH   SFRSYM    DATA     BYTE      In1ctrl_hcout1ctrl
      000000D4H   SFRSYM    DATA     BYTE      PADPUPD
      0000009DH   SFRSYM    DATA     BYTE      RTCVDD_reserved
      000000CAH   SFRSYM    DATA     BYTE      EPRST
      000000E5H   SFRSYM    DATA     BYTE      DAC_ANALOG1
      000000ABH   SFRSYM    DATA     BYTE      MP3EncCtl
      000000E4H   SFRSYM    DATA     BYTE      DAC_ANALOG0
      000000D5H   SFRSYM    DATA     BYTE      DAC_CTL
      000000ABH   SFRSYM    DATA     BYTE      WMACtl
      000000ECH   SFRSYM    DATA     BYTE      LED_SEG_BIAS_EN
      00000098H   SFRSYM    DATA     BYTE      CP_CTL1
      000000AAH   SFRSYM    DATA     BYTE      WAVIP
      00000097H   SFRSYM    DATA     BYTE      CP_CTL0
      00000090H   SFRSYM    DATA     BYTE      OUTPCKCNTH
      00000092H   SFRSYM    DATA     BYTE      IDVBUSCTRL
      00000094H   SFRSYM    DATA     BYTE      UART_STA
      00000098H   SFRSYM    DATA     BYTE      UART_DEBUG
      000000E5H   SFRSYM    DATA     BYTE      bist_fin2
      0000009AH   SFRSYM    DATA     BYTE      TEST_CTL
      000000ABH   SFRSYM    DATA     BYTE      CLKENCTL2
      00000093H   SFRSYM    DATA     BYTE      UART_DRQ
      000000C3H   SFRSYM    DATA     BYTE      GPIOGOUTEN
      000000E4H   SFRSYM    DATA     BYTE      bist_fin1
      000000AAH   SFRSYM    DATA     BYTE      CLKENCTL1
      000000BAH   SFRSYM    DATA     BYTE      Hcout3err
      000000BCH   SFRSYM    DATA     BYTE      GPIOFOUTEN
      000000A9H   SFRSYM    DATA     BYTE      CLKENCTL0
      000000B7H   SFRSYM    DATA     BYTE      GPIOEOUTEN
      00000092H   SFRSYM    DATA     BYTE      AuCodecDebug
      000000B4H   SFRSYM    DATA     BYTE      Hcout1err
      000000B2H   SFRSYM    DATA     BYTE      GPIODOUTEN
      000000B9H   SFRSYM    DATA     BYTE      AUDIO_PLL_CTL
      000000B1H   SFRSYM    DATA     BYTE      Hcout0err
      000000B6H   SFRSYM    DATA     BYTE      Hcin2err
      00000092H   SFRSYM    DATA     BYTE      UART_CTL
      000000ADH   SFRSYM    DATA     BYTE      GPIOCOUTEN
      00000090H   SFRSYM    DATA     BYTE      PMUADC_CTL
      000000A7H   SFRSYM    DATA     BYTE      GPIOBOUTEN
      000000B8H   SFRSYM    DATA     BYTE      WDCTL
      000000AFH   SFRSYM    DATA     BYTE      MP3TTimeH
      000000BBH   SFRSYM    DATA     BYTE      MP3HeaderSynCtl
      000000AAH   SFRSYM    DATA     BYTE      WMAIP
      000000B2H   SFRSYM    DATA     BYTE      Hcin0err
L251 LINKER/LOCATER V4.25                                                             12/13/2018  16:28:37  PAGE 35


      000000F6H   SFRSYM    DATA     BYTE      OTGTRIRQ
      000000A2H   SFRSYM    DATA     BYTE      GPIOAOUTEN
      000000EBH   SFRSYM    DATA     BYTE      LED_SEG_RC_EN

      00ED57FCH   BLOCK     ECODE    ---       LVL=0
      REG=0       REGSYM    ---      ---       msg_buf
      R10         REGSYM    ---      BYTE      sfr_temp
      00ED57FCH   LINE      ECODE    ---       #33
      00ED57FCH   LINE      ECODE    ---       #34
      00ED57FCH   LINE      ECODE    ---       #35
      00ED57FFH   LINE      ECODE    ---       #36
      00ED5802H   LINE      ECODE    ---       #37
      00ED5804H   LINE      ECODE    ---       #39
      00ED5804H   LINE      ECODE    ---       #42
      00ED580EH   LINE      ECODE    ---       #43
      00ED5813H   LINE      ECODE    ---       #44
      00ED5815H   LINE      ECODE    ---       #45
      00ED581AH   LINE      ECODE    ---       #47
      00ED581AH   LINE      ECODE    ---       #50
      00ED581FH   LINE      ECODE    ---       #51
      00ED5822H   LINE      ECODE    ---       #52
      00ED5822H   LINE      ECODE    ---       #53
      ---         BLOCKEND  ---      ---       LVL=0

      00ED5823H   BLOCK     ECODE    ---       LVL=0
      REG=0       REGSYM    ---      ---       str
      WR8         REGSYM    ---      WORD      i
      R6          REGSYM    ---      BYTE      dat
      R10         REGSYM    ---      BYTE      remain_read
      R7          REGSYM    ---      BYTE      sfr_temp
      00ED5823H   LINE      ECODE    ---       #55
      00ED5823H   LINE      ECODE    ---       #56
      00ED5823H   LINE      ECODE    ---       #60
      00ED5826H   LINE      ECODE    ---       #61
      00ED5829H   LINE      ECODE    ---       #62
      00ED5829H   LINE      ECODE    ---       #64
      00ED5833H   LINE      ECODE    ---       #65
      00ED583CH   LINE      ECODE    ---       #67
      00ED583FH   LINE      ECODE    ---       #68
      00ED5845H   LINE      ECODE    ---       #69
      00ED5847H   LINE      ECODE    ---       #72
      00ED5849H   LINE      ECODE    ---       #73
      00ED584EH   LINE      ECODE    ---       #74
      00ED584EH   LINE      ECODE    ---       #75
      00ED5858H   LINE      ECODE    ---       #76
      00ED585CH   LINE      ECODE    ---       #78
      00ED5863H   LINE      ECODE    ---       #79
      00ED5866H   LINE      ECODE    ---       #80
      00ED586EH   LINE      ECODE    ---       #81
      00ED5871H   LINE      ECODE    ---       #82
      00ED5874H   LINE      ECODE    ---       #83
      ---         BLOCKEND  ---      ---       LVL=0

      00ED5875H   BLOCK     ECODE    ---       LVL=0
      00ED5877H   BLOCK     ECODE    NEAR LAB  LVL=1
      R15         REGSYM    ---      BYTE      sfr_bak
      R10         REGSYM    ---      BYTE      i
      ---         BLOCKEND  ---      ---       LVL=1
      00ED5875H   LINE      ECODE    ---       #85
      00ED5877H   LINE      ECODE    ---       #86
      00ED5877H   LINE      ECODE    ---       #87
      00ED587AH   LINE      ECODE    ---       #89
      00ED587DH   LINE      ECODE    ---       #90
      00ED587DH   LINE      ECODE    ---       #93
      00ED5887H   LINE      ECODE    ---       #95
L251 LINKER/LOCATER V4.25                                                             12/13/2018  16:28:37  PAGE 36


      00ED588AH   LINE      ECODE    ---       #96
      00ED588AH   LINE      ECODE    ---       #99
      00ED588FH   LINE      ECODE    ---       #101
      00ED5898H   LINE      ECODE    ---       #102
      00ED589AH   LINE      ECODE    ---       #104
      00ED58ABH   LINE      ECODE    ---       #105
      00ED58B2H   LINE      ECODE    ---       #106
      00ED58B2H   LINE      ECODE    ---       #109
      00ED58B7H   LINE      ECODE    ---       #111
      00ED58BAH   LINE      ECODE    ---       #112
      ---         BLOCKEND  ---      ---       LVL=0

      00ED58BDH   BLOCK     ECODE    ---       LVL=0
      00ED58BFH   BLOCK     ECODE    NEAR LAB  LVL=1
      R15         REGSYM    ---      BYTE      sfr_temp
      ---         BLOCKEND  ---      ---       LVL=1
      00ED58BDH   LINE      ECODE    ---       #114
      00ED58BFH   LINE      ECODE    ---       #115
      00ED58BFH   LINE      ECODE    ---       #116
      00ED58C2H   LINE      ECODE    ---       #117
      00ED58CCH   LINE      ECODE    ---       #118
      00ED58CFH   LINE      ECODE    ---       #119
      00ED58D2H   LINE      ECODE    ---       #120
      00ED58D5H   LINE      ECODE    ---       #121
      ---         BLOCKEND  ---      ---       LVL=0

      00ED58D8H   BLOCK     ECODE    ---       LVL=0
      00ED58DAH   BLOCK     ECODE    NEAR LAB  LVL=1
      R15         REGSYM    ---      BYTE      sfr_temp
      ---         BLOCKEND  ---      ---       LVL=1
      00ED58D8H   LINE      ECODE    ---       #123
      00ED58DAH   LINE      ECODE    ---       #124
      00ED58DAH   LINE      ECODE    ---       #125
      00ED58DDH   LINE      ECODE    ---       #126
      00ED58E7H   LINE      ECODE    ---       #127
      00ED58EAH   LINE      ECODE    ---       #128
      00ED58EDH   LINE      ECODE    ---       #129
      00ED58F0H   LINE      ECODE    ---       #130
      ---         BLOCKEND  ---      ---       LVL=0

      00ED58F3H   BLOCK     ECODE    ---       LVL=0
      00ED58F5H   BLOCK     ECODE    NEAR LAB  LVL=1
      R15         REGSYM    ---      BYTE      sfr_temp
      ---         BLOCKEND  ---      ---       LVL=1
      00ED58F3H   LINE      ECODE    ---       #132
      00ED58F5H   LINE      ECODE    ---       #133
      00ED58F5H   LINE      ECODE    ---       #134
      00ED58F8H   LINE      ECODE    ---       #135
      00ED5902H   LINE      ECODE    ---       #136
      00ED5905H   LINE      ECODE    ---       #137
      00ED5908H   LINE      ECODE    ---       #138
      00ED590BH   LINE      ECODE    ---       #139
      ---         BLOCKEND  ---      ---       LVL=0

      00ED590EH   BLOCK     ECODE    ---       LVL=0
      00ED5910H   BLOCK     ECODE    NEAR LAB  LVL=1
      R15         REGSYM    ---      BYTE      sfr_temp
      ---         BLOCKEND  ---      ---       LVL=1
      00ED590EH   LINE      ECODE    ---       #141
      00ED5910H   LINE      ECODE    ---       #142
      00ED5910H   LINE      ECODE    ---       #143
      00ED5913H   LINE      ECODE    ---       #145
      00ED5916H   LINE      ECODE    ---       #146
      00ED5916H   LINE      ECODE    ---       #149
      00ED591BH   LINE      ECODE    ---       #150
L251 LINKER/LOCATER V4.25                                                             12/13/2018  16:28:37  PAGE 37


      00ED591EH   LINE      ECODE    ---       #153
      00ED5924H   LINE      ECODE    ---       #155
      00ED5927H   LINE      ECODE    ---       #156
      00ED5937H   LINE      ECODE    ---       #157
      00ED5939H   LINE      ECODE    ---       #160
      00ED5940H   LINE      ECODE    ---       #162
      00ED5945H   LINE      ECODE    ---       #163
      00ED5948H   LINE      ECODE    ---       #164
      00ED594BH   LINE      ECODE    ---       #165
      00ED594EH   LINE      ECODE    ---       #166
      00ED5951H   LINE      ECODE    ---       #167
      00ED5954H   LINE      ECODE    ---       #169
      00ED595CH   LINE      ECODE    ---       #170
      00ED5977H   LINE      ECODE    ---       #171
      00ED597FH   LINE      ECODE    ---       #172
      00ED5985H   LINE      ECODE    ---       #173
      00ED5987H   LINE      ECODE    ---       #174
      00ED5987H   LINE      ECODE    ---       #176
      00ED5991H   LINE      ECODE    ---       #178
      00ED5994H   LINE      ECODE    ---       #179
      00ED5994H   LINE      ECODE    ---       #180
      00ED5999H   LINE      ECODE    ---       #181
      00ED599EH   LINE      ECODE    ---       #182
      00ED59A4H   LINE      ECODE    ---       #183
      00ED59A7H   LINE      ECODE    ---       #184
      00ED59A7H   LINE      ECODE    ---       #185
      00ED59AAH   LINE      ECODE    ---       #186
      ---         BLOCKEND  ---      ---       LVL=0

      ---         MODULE    ---      ---       UART
      00ED5600H   PUBLIC    ECODE    ---       uart_init??
      00ED568DH   PUBLIC    ECODE    ---       uart_exit??
      00ED5717H   PUBLIC    ECODE    ---       get_uart_data??
      00ED56AEH   PUBLIC    ECODE    ---       init_uart_info??
      00000A80H   PUBLIC    EDATA    BYTE      trans_1st_finish_flag
      00000A81H   PUBLIC    EDATA    BYTE      trans_2nd_start_flag
      00000A82H   PUBLIC    EDATA    ---       uart_data1_fp
      00000A86H   PUBLIC    EDATA    ---       uart_data2_fp
      00000A8AH   PUBLIC    EDATA    DWORD     uart_isr_no
      00000A8EH   PUBLIC    EDATA    BYTE      drop_flag
      00000A8FH   PUBLIC    EDATA    ---       data_read_buf
      00000A93H   PUBLIC    EDATA    ---       uart_data
      00000A97H   PUBLIC    EDATA    BYTE      trans_last_data_flag
      00000A98H   PUBLIC    EDATA    BYTE      delay_timer_id
      00000A99H   PUBLIC    EDATA    ---       uart_fifo
      00000AAAH   PUBLIC    EDATA    BYTE      tmp_count
      00000AABH   PUBLIC    EDATA    ---       head1_read_buf
      00000AAFH   PUBLIC    EDATA    ---       head2_read_buf
      00000AB3H   PUBLIC    EDATA    BYTE      uart_timer_id
      00ED57E4H   PUBLIC    HCONST   ---       uart_data1_str
      00ED57F0H   PUBLIC    HCONST   ---       uart_data2_str
      000000A9H   SFRSYM    DATA     BYTE      WAVIE
      0000009AH   SFRSYM    DATA     BYTE      DAC_CH1_SRFT_CTL0
      00000094H   SFRSYM    DATA     BYTE      SD_STATE
      00000092H   SFRSYM    DATA     BYTE      DAC_CH0_SRFT_CTL0
      000000F4H   SFRSYM    DATA     BYTE      ADC_GAIN1
      000000DAH   SFRSYM    DATA     BYTE      Otgirq
      000000F3H   SFRSYM    DATA     BYTE      ADC_GAIN0
      000000ACH   SFRSYM    DATA     BYTE      MP3EncInfo
      000000B7H   SFRSYM    DATA     BYTE      LOSC_CTL
      000000E9H   SFRSYM    DATA     BYTE      bist_info2
      000000ABH   SFRSYM    DATA     BYTE      MP3Ctl
      00000086H   SFRSYM    DATA     BYTE      UDMAM
      000000D7H   SFRSYM    DATA     BYTE      PADDRV2
      000000E7H   SFRSYM    DATA     BYTE      bist_info1
L251 LINKER/LOCATER V4.25                                                             12/13/2018  16:28:37  PAGE 38


      000000A9H   SFRSYM    DATA     BYTE      WMAIE
      000000ADH   SFRSYM    DATA     BYTE      TK_UPDAT_PD
      00000095H   SFRSYM    DATA     BYTE      USB_PHYCTRL
      000000EEH   SFRSYM    DATA     BYTE      DBGMODE
      000000B3H   SFRSYM    DATA     BYTE      MCU_PLL_CTL
      000000C8H   SFRSYM    DATA     BYTE      SPI_RAND
      000000BDH   SFRSYM    DATA     BYTE      ADC_DAC_CLK_CTL
      000000D7H   SFRSYM    DATA     BYTE      CTCCTL2
      000000F5H   SFRSYM    DATA     BYTE      OTGTRIEN
      000000CFH   SFRSYM    DATA     BYTE      RedirectAddr7
      000000B3H   SFRSYM    DATA     BYTE      SPDIFRX_DEBUG
      000000CEH   SFRSYM    DATA     BYTE      RedirectAddr6
      000000CDH   SFRSYM    DATA     BYTE      RedirectAddr5
      000000AAH   SFRSYM    DATA     BYTE      MP3IP
      00000080H   SFRSYM    DATA     BYTE      SFR_BANK
      000000CCH   SFRSYM    DATA     BYTE      RedirectAddr4
      000000DEH   SFRSYM    DATA     BYTE      Otgien
      000000CBH   SFRSYM    DATA     BYTE      RedirectAddr3
      0000009FH   SFRSYM    DATA     BYTE      MRCR3
      000000DAH   SFRSYM    DATA     BYTE      TK_DEBUG
      000000CAH   SFRSYM    DATA     BYTE      RedirectAddr2
      00000089H   SFRSYM    DATA     BYTE      MRCR2
      000000CBH   SFRSYM    DATA     BYTE      KaraokeCtl
      000000EBH   SFRSYM    DATA     BYTE      PA_APCTL
      000000B0H   SFRSYM    DATA     BYTE      SPDIFRX_CTL
      000000C9H   SFRSYM    DATA     BYTE      RedirectAddr1
      00000086H   SFRSYM    DATA     BYTE      MRCR1
      0000009EH   SFRSYM    DATA     BYTE      SD_TIMEOUT_CTL
      000000C8H   SFRSYM    DATA     BYTE      RedirectAddr0
      000000B4H   SFRSYM    DATA     BYTE      MEMCLKENCTL0
      000000A6H   SFRSYM    DATA     BYTE      IR_STA
      000000FCH   SFRSYM    DATA     BYTE      ADC_FIFOCTL1
      00000093H   SFRSYM    DATA     BYTE      AuCodecFIFOCtl
      000000DCH   SFRSYM    DATA     BYTE      Otgctrl
      000000F8H   SFRSYM    DATA     BYTE      ADC_FIFOCTL0
      00000092H   SFRSYM    DATA     BYTE      TK_IRQ_PD
      000000DEH   SFRSYM    DATA     BYTE      DAC_CH1_FIFO_CTL1
      000000D9H   SFRSYM    DATA     BYTE      DAC_CH0_FIFO_CTL1
      000000DDH   SFRSYM    DATA     BYTE      DAC_CH1_FIFO_CTL0
      000000AAH   SFRSYM    DATA     BYTE      RTC_CTL1
      000000A9H   SFRSYM    DATA     BYTE      MP3IE
      000000BAH   SFRSYM    DATA     BYTE      TK_RAW_PD
      000000AFH   SFRSYM    DATA     BYTE      SHORTPCKIRQ
      000000A5H   SFRSYM    DATA     BYTE      IR_CTL
      000000D8H   SFRSYM    DATA     BYTE      DAC_CH0_FIFO_CTL0
      000000D8H   SFRSYM    DATA     BYTE      EXTINT
      000000BBH   SFRSYM    DATA     BYTE      MCU_PLL_SSC_FSTEP
      000000A9H   SFRSYM    DATA     BYTE      RTC_CTL0
      00000089H   SFRSYM    DATA     BYTE      ACC_CTRL
      000000A2H   SFRSYM    DATA     BYTE      ADC_SRFT_CTL0
      000000CEH   SFRSYM    DATA     BYTE      MFP_CTL6
      00000094H   SFRSYM    DATA     BYTE      DPDMCTRL
      000000CDH   SFRSYM    DATA     BYTE      MFP_CTL5
      000000EDH   SFRSYM    DATA     BYTE      HCINCTRL
      0000008AH   SFRSYM    DATA     BYTE      LCD_MODE
      000000CAH   SFRSYM    DATA     BYTE      MFP_CTL2
      00000093H   SFRSYM    DATA     BYTE      TK_PRESS_STA
      000000B8H   SFRSYM    DATA     BYTE      HCL_CLK_CTL
      000000ACH   SFRSYM    DATA     BYTE      SDCLKCTL
      00000090H   SFRSYM    DATA     BYTE      TK_EN_CTL
      00000093H   SFRSYM    DATA     BYTE      SD_TF_CTL
      000000B0H   SFRSYM    DATA     BYTE      RTCTimeY
      000000A6H   SFRSYM    DATA     BYTE      In3cs_hcout3cs
      000000DDH   SFRSYM    DATA     BYTE      Otgstatus
      000000ECH   SFRSYM    DATA     BYTE      DDV_CTL0
L251 LINKER/LOCATER V4.25                                                             12/13/2018  16:28:37  PAGE 39


      00000093H   SFRSYM    DATA     BYTE      USBSTATUS
      000000A3H   SFRSYM    DATA     BYTE      Out2cs_hcin2cs
      000000C5H   SFRSYM    DATA     BYTE      GPIOGDAT
      000000EFH   SFRSYM    DATA     BYTE      VDCTRL
      000000BFH   SFRSYM    DATA     BYTE      GPIOFDAT
      000000C0H   SFRSYM    DATA     BYTE      AIF
      000000CEH   SFRSYM    DATA     BYTE      SRSCtl2
      0000009DH   SFRSYM    DATA     BYTE      In1cs_hcout1cs
      000000B9H   SFRSYM    DATA     BYTE      GPIOEDAT
      000000E8H   SFRSYM    DATA     BYTE      AIE
      000000CDH   SFRSYM    DATA     BYTE      SRSCtl1
      000000B4H   SFRSYM    DATA     BYTE      GPIODDAT
      000000CCH   SFRSYM    DATA     BYTE      SRSCtl0
      000000AFH   SFRSYM    DATA     BYTE      GPIOCDAT
      000000ECH   SFRSYM    DATA     BYTE      AUTONAKCTRL
      000000AAH   SFRSYM    DATA     BYTE      GPIOBDAT
      000000A4H   SFRSYM    DATA     BYTE      GPIOADAT
      000000D3H   SFRSYM    DATA     BYTE      AD_Select
      00000099H   SFRSYM    DATA     BYTE      Ep0cs_hcep0cs
      000000C4H   SFRSYM    DATA     BYTE      AECLKCTL
      000000D5H   SFRSYM    DATA     BYTE      PageAddrMask9
      000000F7H   SFRSYM    DATA     BYTE      USB_Efuse_Ref
      000000F9H   SFRSYM    DATA     BYTE      MemBankCtl
      000000D4H   SFRSYM    DATA     BYTE      PageAddrMask8
      00000091H   SFRSYM    DATA     BYTE      UART_MODE
      000000E3H   SFRSYM    DATA     BYTE      I2S_CTL1
      000000D2H   SFRSYM    DATA     BYTE      PageAddrMask7
      000000ABH   SFRSYM    DATA     BYTE      SoftCtl
      000000F3H   SFRSYM    DATA     BYTE      BKDOOR
      000000E2H   SFRSYM    DATA     BYTE      I2S_CTL0
      000000B6H   SFRSYM    DATA     BYTE      PageAddrMask6
      0000009CH   SFRSYM    DATA     BYTE      SYSTEM_ONOFF
      000000ACH   SFRSYM    DATA     BYTE      WMAHeaderInfo
      000000B5H   SFRSYM    DATA     BYTE      PageAddrMask5
      000000ADH   SFRSYM    DATA     BYTE      Usbirq_hcusbirq
      000000B1H   SFRSYM    DATA     BYTE      SPDIFRX_STAT
      000000B4H   SFRSYM    DATA     BYTE      PageAddrMask4
      00000088H   SFRSYM    DATA     BYTE      IF0
      000000B3H   SFRSYM    DATA     BYTE      PageAddrMask3
      000000B9H   SFRSYM    DATA     BYTE      CTCCTL
      000000CFH   SFRSYM    DATA     BYTE      Clkgate
      000000A8H   SFRSYM    DATA     BYTE      IE0
      000000B2H   SFRSYM    DATA     BYTE      PageAddrMask2
      000000A3H   SFRSYM    DATA     BYTE      EFUSE_CTL
      000000BAH   SFRSYM    DATA     BYTE      MCU_PLL_SSC_CTL
      000000D2H   SFRSYM    DATA     BYTE      Fifoctrl
      000000FDH   SFRSYM    DATA     BYTE      ADC_CTL1
      000000B1H   SFRSYM    DATA     BYTE      PageAddrMask1
      000000BCH   SFRSYM    DATA     BYTE      MCU_PLL_DEBUG_CTL
      000000AFH   SFRSYM    DATA     BYTE      PWMDUTY
      00000090H   SFRSYM    DATA     BYTE      AuCodecCtl
      000000F1H   SFRSYM    DATA     BYTE      ADC_CTL0
      000000F2H   SFRSYM    DATA     BYTE      AINOP_CTL
      000000B0H   SFRSYM    DATA     BYTE      PageAddrMask0
      0000008AH   SFRSYM    DATA     BYTE      LDOPD_CTL
      000000BDH   SFRSYM    DATA     BYTE      SynHeaderData2
      000000AAH   SFRSYM    DATA     BYTE      SoftIP
      000000C7H   SFRSYM    DATA     BYTE      Ep03tokirq
      000000AEH   SFRSYM    DATA     BYTE      MEMCLKSELCTL1
      000000BCH   SFRSYM    DATA     BYTE      SynHeaderData1
      0000009BH   SFRSYM    DATA     BYTE      SPI_STA
      000000A3H   SFRSYM    DATA     BYTE      SPI_DEBUG
      00000095H   SFRSYM    DATA     BYTE      AuCodecDebug2
      0000009AH   SFRSYM    DATA     BYTE      SPI_DRQ
      000000DBH   SFRSYM    DATA     BYTE      DBGSEL
L251 LINKER/LOCATER V4.25                                                             12/13/2018  16:28:37  PAGE 40


      000000C6H   SFRSYM    DATA     BYTE      BEPCtl5
      00000090H   SFRSYM    DATA     BYTE      UART_BR
      000000C6H   SFRSYM    DATA     BYTE      GPIOGPUEN
      00000087H   SFRSYM    DATA     BYTE      PCON
      000000C5H   SFRSYM    DATA     BYTE      BEPCtl4
      00000099H   SFRSYM    DATA     BYTE      SPI_CTL
      000000C1H   SFRSYM    DATA     BYTE      GPIOFPUEN
      000000C4H   SFRSYM    DATA     BYTE      BEPCtl3
      000000BAH   SFRSYM    DATA     BYTE      GPIOEPUEN
      000000C3H   SFRSYM    DATA     BYTE      BEPCtl2
      000000B5H   SFRSYM    DATA     BYTE      GPIODPUEN
      000000C2H   SFRSYM    DATA     BYTE      BEPCtl1
      00000091H   SFRSYM    DATA     BYTE      TK_FUN_CTL
      000000B0H   SFRSYM    DATA     BYTE      GPIOCPUEN
      000000ACH   SFRSYM    DATA     BYTE      MP3HeaderInfo
      000000A9H   SFRSYM    DATA     BYTE      SoftIE
      000000ABH   SFRSYM    DATA     BYTE      GPIOBPUEN
      0000009BH   SFRSYM    DATA     BYTE      SYSTEM_CTL
      000000ABH   SFRSYM    DATA     BYTE      WAVEncCtl
      000000D3H   SFRSYM    DATA     BYTE      Hcportctrl
      000000A5H   SFRSYM    DATA     BYTE      GPIOAPUEN
      000000F6H   SFRSYM    DATA     BYTE      IFDebug1
      000000C9H   SFRSYM    DATA     BYTE      LED_SEGLCDCLKCTL
      000000F5H   SFRSYM    DATA     BYTE      IFDebug0
      000000A4H   SFRSYM    DATA     BYTE      EFUSE0
      000000C2H   SFRSYM    DATA     BYTE      CPUCLKCTL
      0000009CH   SFRSYM    DATA     BYTE      SD_INT_CTL
      000000C8H   SFRSYM    DATA     BYTE      Ep03tokien
      000000F8H   SFRSYM    DATA     BYTE      AIPL
      000000E9H   SFRSYM    DATA     BYTE      DBGDOE
      000000E6H   SFRSYM    DATA     BYTE      DBGCOE
      000000E4H   SFRSYM    DATA     BYTE      DBGBOE
      000000C4H   SFRSYM    DATA     BYTE      GPIOGINEN
      000000E2H   SFRSYM    DATA     BYTE      DBGAOE
      000000F7H   SFRSYM    DATA     BYTE      AIPH
      000000BDH   SFRSYM    DATA     BYTE      GPIOFINEN
      000000C5H   SFRSYM    DATA     BYTE      FixAddr3H
      000000B8H   SFRSYM    DATA     BYTE      GPIOEINEN
      000000C2H   SFRSYM    DATA     BYTE      FixAddr2H
      00000091H   SFRSYM    DATA     BYTE      DMA4IP
      000000AEH   SFRSYM    DATA     BYTE      Usbien_hcusbien
      000000B3H   SFRSYM    DATA     BYTE      GPIODINEN
      000000C7H   SFRSYM    DATA     BYTE      GPIOGPDEN
      000000BBH   SFRSYM    DATA     BYTE      FixAddr1H
      0000008DH   SFRSYM    DATA     BYTE      MULTI_USED
      00000091H   SFRSYM    DATA     BYTE      DMA3IP
      000000AEH   SFRSYM    DATA     BYTE      GPIOCINEN
      000000C2H   SFRSYM    DATA     BYTE      GPIOFPDEN
      00000091H   SFRSYM    DATA     BYTE      DMA2IP
      000000A9H   SFRSYM    DATA     BYTE      GPIOBINEN
      000000BBH   SFRSYM    DATA     BYTE      GPIOEPDEN
      000000E5H   SFRSYM    DATA     BYTE      DBGBIE
      00000091H   SFRSYM    DATA     BYTE      DMA1IP
      000000EBH   SFRSYM    DATA     BYTE      USBEIRQ
      000000A3H   SFRSYM    DATA     BYTE      GPIOAINEN
      000000B6H   SFRSYM    DATA     BYTE      GPIODPDEN
      000000E3H   SFRSYM    DATA     BYTE      DBGAIE
      00000091H   SFRSYM    DATA     BYTE      DMA0IP
      000000B1H   SFRSYM    DATA     BYTE      GPIOCPDEN
      00000094H   SFRSYM    DATA     BYTE      DMA4CTL0
      000000ACH   SFRSYM    DATA     BYTE      GPIOBPDEN
      000000E2H   SFRSYM    DATA     BYTE      bist_en2
      00000094H   SFRSYM    DATA     BYTE      DMA3CTL0
      000000A2H   SFRSYM    DATA     BYTE      SPI_BCH
      000000A6H   SFRSYM    DATA     BYTE      GPIOAPDEN
L251 LINKER/LOCATER V4.25                                                             12/13/2018  16:28:37  PAGE 41


      000000E1H   SFRSYM    DATA     BYTE      bist_en1
      00000094H   SFRSYM    DATA     BYTE      DMA2CTL0
      00000094H   SFRSYM    DATA     BYTE      DMA1CTL0
      00000094H   SFRSYM    DATA     BYTE      DMA0CTL0
      0000009AH   SFRSYM    DATA     BYTE      SD_CLK_CTL
      0000009EH   SFRSYM    DATA     BYTE      EXTMEM_CTL
      000000F5H   SFRSYM    DATA     BYTE      ADC_TUNE0
      000000B8H   SFRSYM    DATA     BYTE      IPL0
      00000092H   SFRSYM    DATA     BYTE      DMA4IE
      000000ACH   SFRSYM    DATA     BYTE      WAVEncInfo
      000000A5H   SFRSYM    DATA     BYTE      In3ctrl_hcout3ctrl
      00000092H   SFRSYM    DATA     BYTE      DMA3IE
      00000089H   SFRSYM    DATA     BYTE      VOUT_CTL
      00000092H   SFRSYM    DATA     BYTE      DMA2IE
      000000ABH   SFRSYM    DATA     BYTE      WAVCtl
      000000A2H   SFRSYM    DATA     BYTE      Out2ctrl_hcin2ctrl
      000000CBH   SFRSYM    DATA     BYTE      UsbCTRL_STUS
      00000092H   SFRSYM    DATA     BYTE      DMA1IE
      000000B7H   SFRSYM    DATA     BYTE      IPH0
      0000008BH   SFRSYM    DATA     BYTE      BDG_CTL
      00000092H   SFRSYM    DATA     BYTE      DMA0IE
      0000009BH   SFRSYM    DATA     BYTE      SD_PAD_CTL
      0000009CH   SFRSYM    DATA     BYTE      In1ctrl_hcout1ctrl
      000000D4H   SFRSYM    DATA     BYTE      PADPUPD
      0000009DH   SFRSYM    DATA     BYTE      RTCVDD_reserved
      000000CAH   SFRSYM    DATA     BYTE      EPRST
      000000E5H   SFRSYM    DATA     BYTE      DAC_ANALOG1
      000000ABH   SFRSYM    DATA     BYTE      MP3EncCtl
      000000E4H   SFRSYM    DATA     BYTE      DAC_ANALOG0
      000000D5H   SFRSYM    DATA     BYTE      DAC_CTL
      000000ABH   SFRSYM    DATA     BYTE      WMACtl
      000000ECH   SFRSYM    DATA     BYTE      LED_SEG_BIAS_EN
      00000098H   SFRSYM    DATA     BYTE      CP_CTL1
      000000AAH   SFRSYM    DATA     BYTE      WAVIP
      00000097H   SFRSYM    DATA     BYTE      CP_CTL0
      00000090H   SFRSYM    DATA     BYTE      OUTPCKCNTH
      00000092H   SFRSYM    DATA     BYTE      IDVBUSCTRL
      00000094H   SFRSYM    DATA     BYTE      UART_STA
      00000098H   SFRSYM    DATA     BYTE      UART_DEBUG
      000000E5H   SFRSYM    DATA     BYTE      bist_fin2
      0000009AH   SFRSYM    DATA     BYTE      TEST_CTL
      000000ABH   SFRSYM    DATA     BYTE      CLKENCTL2
      00000093H   SFRSYM    DATA     BYTE      UART_DRQ
      000000C3H   SFRSYM    DATA     BYTE      GPIOGOUTEN
      000000E4H   SFRSYM    DATA     BYTE      bist_fin1
      000000AAH   SFRSYM    DATA     BYTE      CLKENCTL1
      000000BAH   SFRSYM    DATA     BYTE      Hcout3err
      000000BCH   SFRSYM    DATA     BYTE      GPIOFOUTEN
      000000A9H   SFRSYM    DATA     BYTE      CLKENCTL0
      000000B7H   SFRSYM    DATA     BYTE      GPIOEOUTEN
      00000092H   SFRSYM    DATA     BYTE      AuCodecDebug
      000000B4H   SFRSYM    DATA     BYTE      Hcout1err
      000000B2H   SFRSYM    DATA     BYTE      GPIODOUTEN
      000000B9H   SFRSYM    DATA     BYTE      AUDIO_PLL_CTL
      000000B1H   SFRSYM    DATA     BYTE      Hcout0err
      000000B6H   SFRSYM    DATA     BYTE      Hcin2err
      00000092H   SFRSYM    DATA     BYTE      UART_CTL
      000000ADH   SFRSYM    DATA     BYTE      GPIOCOUTEN
      00000090H   SFRSYM    DATA     BYTE      PMUADC_CTL
      000000A7H   SFRSYM    DATA     BYTE      GPIOBOUTEN
      000000B8H   SFRSYM    DATA     BYTE      WDCTL
      000000AFH   SFRSYM    DATA     BYTE      MP3TTimeH
      000000BBH   SFRSYM    DATA     BYTE      MP3HeaderSynCtl
      000000AAH   SFRSYM    DATA     BYTE      WMAIP
      000000B2H   SFRSYM    DATA     BYTE      Hcin0err
L251 LINKER/LOCATER V4.25                                                             12/13/2018  16:28:37  PAGE 42


      000000F6H   SFRSYM    DATA     BYTE      OTGTRIRQ
      000000A2H   SFRSYM    DATA     BYTE      GPIOAOUTEN
      000000EBH   SFRSYM    DATA     BYTE      LED_SEG_RC_EN

      00ED5600H   BLOCK     ECODE    ---       LVL=0
      00ED5602H   BLOCK     ECODE    NEAR LAB  LVL=1
      R15         REGSYM    ---      BYTE      sfr_temp
      ---         BLOCKEND  ---      ---       LVL=1
      00ED5600H   LINE      ECODE    ---       #51
      00ED5602H   LINE      ECODE    ---       #52
      00ED5602H   LINE      ECODE    ---       #53
      00ED5605H   LINE      ECODE    ---       #55
      00ED5608H   LINE      ECODE    ---       #56
      00ED560BH   LINE      ECODE    ---       #57
      00ED560EH   LINE      ECODE    ---       #58
      00ED5611H   LINE      ECODE    ---       #60
      00ED5614H   LINE      ECODE    ---       #61
      00ED5617H   LINE      ECODE    ---       #62
      00ED561AH   LINE      ECODE    ---       #63
      00ED561DH   LINE      ECODE    ---       #64
      00ED5620H   LINE      ECODE    ---       #65
      00ED5623H   LINE      ECODE    ---       #67
      00ED5626H   LINE      ECODE    ---       #68
      00ED5629H   LINE      ECODE    ---       #69
      00ED562CH   LINE      ECODE    ---       #70
      00ED562FH   LINE      ECODE    ---       #71
      00ED5632H   LINE      ECODE    ---       #72
      00ED5635H   LINE      ECODE    ---       #74
      00ED5639H   LINE      ECODE    ---       #76
      00ED563DH   LINE      ECODE    ---       #77
      00ED564CH   LINE      ECODE    ---       #78
      00ED5651H   LINE      ECODE    ---       #79
      00ED5656H   LINE      ECODE    ---       #80
      00ED565BH   LINE      ECODE    ---       #81
      00ED5660H   LINE      ECODE    ---       #82
      00ED5665H   LINE      ECODE    ---       #83
      00ED5668H   LINE      ECODE    ---       #84
      00ED566BH   LINE      ECODE    ---       #85
      00ED567FH   LINE      ECODE    ---       #86
      00ED5682H   LINE      ECODE    ---       #87
      00ED5685H   LINE      ECODE    ---       #88
      00ED5688H   LINE      ECODE    ---       #90
      00ED568AH   LINE      ECODE    ---       #91
      ---         BLOCKEND  ---      ---       LVL=0

      00ED568DH   BLOCK     ECODE    ---       LVL=0
      00ED568DH   LINE      ECODE    ---       #93
      00ED568DH   LINE      ECODE    ---       #95
      00ED569AH   LINE      ECODE    ---       #96
      00ED56A4H   LINE      ECODE    ---       #97
      00ED56AEH   LINE      ECODE    ---       #98
      00ED56AEH   LINE      ECODE    ---       #99
      ---         BLOCKEND  ---      ---       LVL=0

      00ED56AEH   BLOCK     ECODE    ---       LVL=0
      00ED56AEH   LINE      ECODE    ---       #101
      00ED56AEH   LINE      ECODE    ---       #103
      00ED56B6H   LINE      ECODE    ---       #104
      00ED56BEH   LINE      ECODE    ---       #105
      00ED56C6H   LINE      ECODE    ---       #106
      00ED56DCH   LINE      ECODE    ---       #107
      00ED56EEH   LINE      ECODE    ---       #108
      00ED5704H   LINE      ECODE    ---       #109
      00ED5716H   LINE      ECODE    ---       #110
      ---         BLOCKEND  ---      ---       LVL=0
L251 LINKER/LOCATER V4.25                                                             12/13/2018  16:28:37  PAGE 43



      00ED5717H   BLOCK     ECODE    ---       LVL=0
      R10         REGSYM    ---      BYTE      index
      00ED5717H   LINE      ECODE    ---       #112
      00ED5719H   LINE      ECODE    ---       #114
      00ED5721H   LINE      ECODE    ---       #116
      00ED5721H   LINE      ECODE    ---       #117
      00ED5721H   LINE      ECODE    ---       #119
      00ED572DH   LINE      ECODE    ---       #121
      00ED5738H   LINE      ECODE    ---       #122
      00ED5751H   LINE      ECODE    ---       #123
      00ED5765H   LINE      ECODE    ---       #124
      00ED5778H   LINE      ECODE    ---       #125
      00ED577AH   LINE      ECODE    ---       #128
      00ED5789H   LINE      ECODE    ---       #129
      00ED57A2H   LINE      ECODE    ---       #130
      00ED57B6H   LINE      ECODE    ---       #131
      00ED57D1H   LINE      ECODE    ---       #132
      00ED57D1H   LINE      ECODE    ---       #133
      00ED57DEH   LINE      ECODE    ---       #134
      00ED57E3H   LINE      ECODE    ---       #135
      ---         BLOCKEND  ---      ---       LVL=0

      ---         MODULE    ---      ---       UART_RCODE
      00FF1200H   PUBLIC    ECODE    ---       uart_isr??
      00FF139FH   PUBLIC    HCONST   ---       two_stage_command
      000000A9H   SFRSYM    DATA     BYTE      WAVIE
      0000009AH   SFRSYM    DATA     BYTE      DAC_CH1_SRFT_CTL0
      00000094H   SFRSYM    DATA     BYTE      SD_STATE
      00000092H   SFRSYM    DATA     BYTE      DAC_CH0_SRFT_CTL0
      000000F4H   SFRSYM    DATA     BYTE      ADC_GAIN1
      000000DAH   SFRSYM    DATA     BYTE      Otgirq
      000000F3H   SFRSYM    DATA     BYTE      ADC_GAIN0
      000000ACH   SFRSYM    DATA     BYTE      MP3EncInfo
      000000B7H   SFRSYM    DATA     BYTE      LOSC_CTL
      000000E9H   SFRSYM    DATA     BYTE      bist_info2
      000000ABH   SFRSYM    DATA     BYTE      MP3Ctl
      00000086H   SFRSYM    DATA     BYTE      UDMAM
      000000D7H   SFRSYM    DATA     BYTE      PADDRV2
      000000E7H   SFRSYM    DATA     BYTE      bist_info1
      000000A9H   SFRSYM    DATA     BYTE      WMAIE
      000000ADH   SFRSYM    DATA     BYTE      TK_UPDAT_PD
      00000095H   SFRSYM    DATA     BYTE      USB_PHYCTRL
      000000EEH   SFRSYM    DATA     BYTE      DBGMODE
      000000B3H   SFRSYM    DATA     BYTE      MCU_PLL_CTL
      000000C8H   SFRSYM    DATA     BYTE      SPI_RAND
      000000BDH   SFRSYM    DATA     BYTE      ADC_DAC_CLK_CTL
      000000D7H   SFRSYM    DATA     BYTE      CTCCTL2
      000000F5H   SFRSYM    DATA     BYTE      OTGTRIEN
      000000CFH   SFRSYM    DATA     BYTE      RedirectAddr7
      000000B3H   SFRSYM    DATA     BYTE      SPDIFRX_DEBUG
      000000CEH   SFRSYM    DATA     BYTE      RedirectAddr6
      000000CDH   SFRSYM    DATA     BYTE      RedirectAddr5
      000000AAH   SFRSYM    DATA     BYTE      MP3IP
      00000080H   SFRSYM    DATA     BYTE      SFR_BANK
      000000CCH   SFRSYM    DATA     BYTE      RedirectAddr4
      000000DEH   SFRSYM    DATA     BYTE      Otgien
      000000CBH   SFRSYM    DATA     BYTE      RedirectAddr3
      0000009FH   SFRSYM    DATA     BYTE      MRCR3
      000000DAH   SFRSYM    DATA     BYTE      TK_DEBUG
      000000CAH   SFRSYM    DATA     BYTE      RedirectAddr2
      00000089H   SFRSYM    DATA     BYTE      MRCR2
      000000CBH   SFRSYM    DATA     BYTE      KaraokeCtl
      000000EBH   SFRSYM    DATA     BYTE      PA_APCTL
      000000B0H   SFRSYM    DATA     BYTE      SPDIFRX_CTL
L251 LINKER/LOCATER V4.25                                                             12/13/2018  16:28:37  PAGE 44


      000000C9H   SFRSYM    DATA     BYTE      RedirectAddr1
      00000086H   SFRSYM    DATA     BYTE      MRCR1
      0000009EH   SFRSYM    DATA     BYTE      SD_TIMEOUT_CTL
      000000C8H   SFRSYM    DATA     BYTE      RedirectAddr0
      000000B4H   SFRSYM    DATA     BYTE      MEMCLKENCTL0
      000000A6H   SFRSYM    DATA     BYTE      IR_STA
      000000FCH   SFRSYM    DATA     BYTE      ADC_FIFOCTL1
      00000093H   SFRSYM    DATA     BYTE      AuCodecFIFOCtl
      000000DCH   SFRSYM    DATA     BYTE      Otgctrl
      000000F8H   SFRSYM    DATA     BYTE      ADC_FIFOCTL0
      00000092H   SFRSYM    DATA     BYTE      TK_IRQ_PD
      000000DEH   SFRSYM    DATA     BYTE      DAC_CH1_FIFO_CTL1
      000000D9H   SFRSYM    DATA     BYTE      DAC_CH0_FIFO_CTL1
      000000DDH   SFRSYM    DATA     BYTE      DAC_CH1_FIFO_CTL0
      000000AAH   SFRSYM    DATA     BYTE      RTC_CTL1
      000000A9H   SFRSYM    DATA     BYTE      MP3IE
      000000BAH   SFRSYM    DATA     BYTE      TK_RAW_PD
      000000AFH   SFRSYM    DATA     BYTE      SHORTPCKIRQ
      000000A5H   SFRSYM    DATA     BYTE      IR_CTL
      000000D8H   SFRSYM    DATA     BYTE      DAC_CH0_FIFO_CTL0
      000000D8H   SFRSYM    DATA     BYTE      EXTINT
      000000BBH   SFRSYM    DATA     BYTE      MCU_PLL_SSC_FSTEP
      000000A9H   SFRSYM    DATA     BYTE      RTC_CTL0
      00000089H   SFRSYM    DATA     BYTE      ACC_CTRL
      000000A2H   SFRSYM    DATA     BYTE      ADC_SRFT_CTL0
      000000CEH   SFRSYM    DATA     BYTE      MFP_CTL6
      00000094H   SFRSYM    DATA     BYTE      DPDMCTRL
      000000CDH   SFRSYM    DATA     BYTE      MFP_CTL5
      000000EDH   SFRSYM    DATA     BYTE      HCINCTRL
      0000008AH   SFRSYM    DATA     BYTE      LCD_MODE
      000000CAH   SFRSYM    DATA     BYTE      MFP_CTL2
      00000093H   SFRSYM    DATA     BYTE      TK_PRESS_STA
      000000B8H   SFRSYM    DATA     BYTE      HCL_CLK_CTL
      000000ACH   SFRSYM    DATA     BYTE      SDCLKCTL
      00000090H   SFRSYM    DATA     BYTE      TK_EN_CTL
      00000093H   SFRSYM    DATA     BYTE      SD_TF_CTL
      000000B0H   SFRSYM    DATA     BYTE      RTCTimeY
      000000A6H   SFRSYM    DATA     BYTE      In3cs_hcout3cs
      000000DDH   SFRSYM    DATA     BYTE      Otgstatus
      000000ECH   SFRSYM    DATA     BYTE      DDV_CTL0
      00000093H   SFRSYM    DATA     BYTE      USBSTATUS
      000000A3H   SFRSYM    DATA     BYTE      Out2cs_hcin2cs
      000000C5H   SFRSYM    DATA     BYTE      GPIOGDAT
      000000EFH   SFRSYM    DATA     BYTE      VDCTRL
      000000BFH   SFRSYM    DATA     BYTE      GPIOFDAT
      000000C0H   SFRSYM    DATA     BYTE      AIF
      000000CEH   SFRSYM    DATA     BYTE      SRSCtl2
      0000009DH   SFRSYM    DATA     BYTE      In1cs_hcout1cs
      000000B9H   SFRSYM    DATA     BYTE      GPIOEDAT
      000000E8H   SFRSYM    DATA     BYTE      AIE
      000000CDH   SFRSYM    DATA     BYTE      SRSCtl1
      000000B4H   SFRSYM    DATA     BYTE      GPIODDAT
      000000CCH   SFRSYM    DATA     BYTE      SRSCtl0
      000000AFH   SFRSYM    DATA     BYTE      GPIOCDAT
      000000ECH   SFRSYM    DATA     BYTE      AUTONAKCTRL
      000000AAH   SFRSYM    DATA     BYTE      GPIOBDAT
      000000A4H   SFRSYM    DATA     BYTE      GPIOADAT
      000000D3H   SFRSYM    DATA     BYTE      AD_Select
      00000099H   SFRSYM    DATA     BYTE      Ep0cs_hcep0cs
      000000C4H   SFRSYM    DATA     BYTE      AECLKCTL
      000000D5H   SFRSYM    DATA     BYTE      PageAddrMask9
      000000F7H   SFRSYM    DATA     BYTE      USB_Efuse_Ref
      000000F9H   SFRSYM    DATA     BYTE      MemBankCtl
      000000D4H   SFRSYM    DATA     BYTE      PageAddrMask8
      00000091H   SFRSYM    DATA     BYTE      UART_MODE
L251 LINKER/LOCATER V4.25                                                             12/13/2018  16:28:37  PAGE 45


      000000E3H   SFRSYM    DATA     BYTE      I2S_CTL1
      000000D2H   SFRSYM    DATA     BYTE      PageAddrMask7
      000000ABH   SFRSYM    DATA     BYTE      SoftCtl
      000000F3H   SFRSYM    DATA     BYTE      BKDOOR
      000000E2H   SFRSYM    DATA     BYTE      I2S_CTL0
      000000B6H   SFRSYM    DATA     BYTE      PageAddrMask6
      0000009CH   SFRSYM    DATA     BYTE      SYSTEM_ONOFF
      000000ACH   SFRSYM    DATA     BYTE      WMAHeaderInfo
      000000B5H   SFRSYM    DATA     BYTE      PageAddrMask5
      000000ADH   SFRSYM    DATA     BYTE      Usbirq_hcusbirq
      000000B1H   SFRSYM    DATA     BYTE      SPDIFRX_STAT
      000000B4H   SFRSYM    DATA     BYTE      PageAddrMask4
      00000088H   SFRSYM    DATA     BYTE      IF0
      000000B3H   SFRSYM    DATA     BYTE      PageAddrMask3
      000000B9H   SFRSYM    DATA     BYTE      CTCCTL
      000000CFH   SFRSYM    DATA     BYTE      Clkgate
      000000A8H   SFRSYM    DATA     BYTE      IE0
      000000B2H   SFRSYM    DATA     BYTE      PageAddrMask2
      000000A3H   SFRSYM    DATA     BYTE      EFUSE_CTL
      000000BAH   SFRSYM    DATA     BYTE      MCU_PLL_SSC_CTL
      000000D2H   SFRSYM    DATA     BYTE      Fifoctrl
      000000FDH   SFRSYM    DATA     BYTE      ADC_CTL1
      000000B1H   SFRSYM    DATA     BYTE      PageAddrMask1
      000000BCH   SFRSYM    DATA     BYTE      MCU_PLL_DEBUG_CTL
      000000AFH   SFRSYM    DATA     BYTE      PWMDUTY
      00000090H   SFRSYM    DATA     BYTE      AuCodecCtl
      000000F1H   SFRSYM    DATA     BYTE      ADC_CTL0
      000000F2H   SFRSYM    DATA     BYTE      AINOP_CTL
      000000B0H   SFRSYM    DATA     BYTE      PageAddrMask0
      0000008AH   SFRSYM    DATA     BYTE      LDOPD_CTL
      000000BDH   SFRSYM    DATA     BYTE      SynHeaderData2
      000000AAH   SFRSYM    DATA     BYTE      SoftIP
      000000C7H   SFRSYM    DATA     BYTE      Ep03tokirq
      000000AEH   SFRSYM    DATA     BYTE      MEMCLKSELCTL1
      000000BCH   SFRSYM    DATA     BYTE      SynHeaderData1
      0000009BH   SFRSYM    DATA     BYTE      SPI_STA
      000000A3H   SFRSYM    DATA     BYTE      SPI_DEBUG
      00000095H   SFRSYM    DATA     BYTE      AuCodecDebug2
      0000009AH   SFRSYM    DATA     BYTE      SPI_DRQ
      000000DBH   SFRSYM    DATA     BYTE      DBGSEL
      000000C6H   SFRSYM    DATA     BYTE      BEPCtl5
      000000C6H   SFRSYM    DATA     BYTE      GPIOGPUEN
      00000087H   SFRSYM    DATA     BYTE      PCON
      000000C5H   SFRSYM    DATA     BYTE      BEPCtl4
      00000099H   SFRSYM    DATA     BYTE      SPI_CTL
      000000C1H   SFRSYM    DATA     BYTE      GPIOFPUEN
      000000C4H   SFRSYM    DATA     BYTE      BEPCtl3
      000000BAH   SFRSYM    DATA     BYTE      GPIOEPUEN
      000000C3H   SFRSYM    DATA     BYTE      BEPCtl2
      000000B5H   SFRSYM    DATA     BYTE      GPIODPUEN
      000000C2H   SFRSYM    DATA     BYTE      BEPCtl1
      00000091H   SFRSYM    DATA     BYTE      TK_FUN_CTL
      000000B0H   SFRSYM    DATA     BYTE      GPIOCPUEN
      000000ACH   SFRSYM    DATA     BYTE      MP3HeaderInfo
      000000A9H   SFRSYM    DATA     BYTE      SoftIE
      000000ABH   SFRSYM    DATA     BYTE      GPIOBPUEN
      0000009BH   SFRSYM    DATA     BYTE      SYSTEM_CTL
      000000ABH   SFRSYM    DATA     BYTE      WAVEncCtl
      000000D3H   SFRSYM    DATA     BYTE      Hcportctrl
      000000A5H   SFRSYM    DATA     BYTE      GPIOAPUEN
      000000F6H   SFRSYM    DATA     BYTE      IFDebug1
      000000C9H   SFRSYM    DATA     BYTE      LED_SEGLCDCLKCTL
      000000F5H   SFRSYM    DATA     BYTE      IFDebug0
      000000A4H   SFRSYM    DATA     BYTE      EFUSE0
      000000C2H   SFRSYM    DATA     BYTE      CPUCLKCTL
L251 LINKER/LOCATER V4.25                                                             12/13/2018  16:28:37  PAGE 46


      0000009CH   SFRSYM    DATA     BYTE      SD_INT_CTL
      000000C8H   SFRSYM    DATA     BYTE      Ep03tokien
      000000F8H   SFRSYM    DATA     BYTE      AIPL
      000000E9H   SFRSYM    DATA     BYTE      DBGDOE
      000000E6H   SFRSYM    DATA     BYTE      DBGCOE
      000000E4H   SFRSYM    DATA     BYTE      DBGBOE
      000000C4H   SFRSYM    DATA     BYTE      GPIOGINEN
      000000E2H   SFRSYM    DATA     BYTE      DBGAOE
      000000F7H   SFRSYM    DATA     BYTE      AIPH
      00000097H   SFRSYM    DATA     BYTE      UART_RXDAT
      000000BDH   SFRSYM    DATA     BYTE      GPIOFINEN
      000000C5H   SFRSYM    DATA     BYTE      FixAddr3H
      000000B8H   SFRSYM    DATA     BYTE      GPIOEINEN
      000000C2H   SFRSYM    DATA     BYTE      FixAddr2H
      00000091H   SFRSYM    DATA     BYTE      DMA4IP
      000000AEH   SFRSYM    DATA     BYTE      Usbien_hcusbien
      000000B3H   SFRSYM    DATA     BYTE      GPIODINEN
      000000C7H   SFRSYM    DATA     BYTE      GPIOGPDEN
      000000BBH   SFRSYM    DATA     BYTE      FixAddr1H
      0000008DH   SFRSYM    DATA     BYTE      MULTI_USED
      00000091H   SFRSYM    DATA     BYTE      DMA3IP
      000000AEH   SFRSYM    DATA     BYTE      GPIOCINEN
      000000C2H   SFRSYM    DATA     BYTE      GPIOFPDEN
      00000091H   SFRSYM    DATA     BYTE      DMA2IP
      000000A9H   SFRSYM    DATA     BYTE      GPIOBINEN
      000000BBH   SFRSYM    DATA     BYTE      GPIOEPDEN
      000000E5H   SFRSYM    DATA     BYTE      DBGBIE
      00000091H   SFRSYM    DATA     BYTE      DMA1IP
      000000EBH   SFRSYM    DATA     BYTE      USBEIRQ
      000000A3H   SFRSYM    DATA     BYTE      GPIOAINEN
      000000B6H   SFRSYM    DATA     BYTE      GPIODPDEN
      000000E3H   SFRSYM    DATA     BYTE      DBGAIE
      00000091H   SFRSYM    DATA     BYTE      DMA0IP
      000000B1H   SFRSYM    DATA     BYTE      GPIOCPDEN
      00000094H   SFRSYM    DATA     BYTE      DMA4CTL0
      000000ACH   SFRSYM    DATA     BYTE      GPIOBPDEN
      000000E2H   SFRSYM    DATA     BYTE      bist_en2
      00000094H   SFRSYM    DATA     BYTE      DMA3CTL0
      000000A2H   SFRSYM    DATA     BYTE      SPI_BCH
      000000A6H   SFRSYM    DATA     BYTE      GPIOAPDEN
      000000E1H   SFRSYM    DATA     BYTE      bist_en1
      00000094H   SFRSYM    DATA     BYTE      DMA2CTL0
      00000094H   SFRSYM    DATA     BYTE      DMA1CTL0
      00000094H   SFRSYM    DATA     BYTE      DMA0CTL0
      0000009AH   SFRSYM    DATA     BYTE      SD_CLK_CTL
      0000009EH   SFRSYM    DATA     BYTE      EXTMEM_CTL
      000000F5H   SFRSYM    DATA     BYTE      ADC_TUNE0
      000000B8H   SFRSYM    DATA     BYTE      IPL0
      00000092H   SFRSYM    DATA     BYTE      DMA4IE
      000000ACH   SFRSYM    DATA     BYTE      WAVEncInfo
      000000A5H   SFRSYM    DATA     BYTE      In3ctrl_hcout3ctrl
      00000092H   SFRSYM    DATA     BYTE      DMA3IE
      00000089H   SFRSYM    DATA     BYTE      VOUT_CTL
      00000092H   SFRSYM    DATA     BYTE      DMA2IE
      000000ABH   SFRSYM    DATA     BYTE      WAVCtl
      000000A2H   SFRSYM    DATA     BYTE      Out2ctrl_hcin2ctrl
      000000CBH   SFRSYM    DATA     BYTE      UsbCTRL_STUS
      00000092H   SFRSYM    DATA     BYTE      DMA1IE
      000000B7H   SFRSYM    DATA     BYTE      IPH0
      0000008BH   SFRSYM    DATA     BYTE      BDG_CTL
      00000092H   SFRSYM    DATA     BYTE      DMA0IE
      0000009BH   SFRSYM    DATA     BYTE      SD_PAD_CTL
      0000009CH   SFRSYM    DATA     BYTE      In1ctrl_hcout1ctrl
      000000D4H   SFRSYM    DATA     BYTE      PADPUPD
      0000009DH   SFRSYM    DATA     BYTE      RTCVDD_reserved
L251 LINKER/LOCATER V4.25                                                             12/13/2018  16:28:37  PAGE 47


      000000CAH   SFRSYM    DATA     BYTE      EPRST
      000000E5H   SFRSYM    DATA     BYTE      DAC_ANALOG1
      000000ABH   SFRSYM    DATA     BYTE      MP3EncCtl
      000000E4H   SFRSYM    DATA     BYTE      DAC_ANALOG0
      000000D5H   SFRSYM    DATA     BYTE      DAC_CTL
      000000ABH   SFRSYM    DATA     BYTE      WMACtl
      000000ECH   SFRSYM    DATA     BYTE      LED_SEG_BIAS_EN
      00000098H   SFRSYM    DATA     BYTE      CP_CTL1
      000000AAH   SFRSYM    DATA     BYTE      WAVIP
      00000097H   SFRSYM    DATA     BYTE      CP_CTL0
      00000090H   SFRSYM    DATA     BYTE      OUTPCKCNTH
      00000092H   SFRSYM    DATA     BYTE      IDVBUSCTRL
      00000094H   SFRSYM    DATA     BYTE      UART_STA
      00000098H   SFRSYM    DATA     BYTE      UART_DEBUG
      000000E5H   SFRSYM    DATA     BYTE      bist_fin2
      0000009AH   SFRSYM    DATA     BYTE      TEST_CTL
      000000ABH   SFRSYM    DATA     BYTE      CLKENCTL2
      00000093H   SFRSYM    DATA     BYTE      UART_DRQ
      000000C3H   SFRSYM    DATA     BYTE      GPIOGOUTEN
      000000E4H   SFRSYM    DATA     BYTE      bist_fin1
      000000AAH   SFRSYM    DATA     BYTE      CLKENCTL1
      000000BAH   SFRSYM    DATA     BYTE      Hcout3err
      000000BCH   SFRSYM    DATA     BYTE      GPIOFOUTEN
      000000A9H   SFRSYM    DATA     BYTE      CLKENCTL0
      000000B7H   SFRSYM    DATA     BYTE      GPIOEOUTEN
      00000092H   SFRSYM    DATA     BYTE      AuCodecDebug
      000000B4H   SFRSYM    DATA     BYTE      Hcout1err
      000000B2H   SFRSYM    DATA     BYTE      GPIODOUTEN
      000000B9H   SFRSYM    DATA     BYTE      AUDIO_PLL_CTL
      000000B1H   SFRSYM    DATA     BYTE      Hcout0err
      000000B6H   SFRSYM    DATA     BYTE      Hcin2err
      00000092H   SFRSYM    DATA     BYTE      UART_CTL
      000000ADH   SFRSYM    DATA     BYTE      GPIOCOUTEN
      00000090H   SFRSYM    DATA     BYTE      PMUADC_CTL
      000000A7H   SFRSYM    DATA     BYTE      GPIOBOUTEN
      000000B8H   SFRSYM    DATA     BYTE      WDCTL
      000000AFH   SFRSYM    DATA     BYTE      MP3TTimeH
      000000BBH   SFRSYM    DATA     BYTE      MP3HeaderSynCtl
      000000AAH   SFRSYM    DATA     BYTE      WMAIP
      000000B2H   SFRSYM    DATA     BYTE      Hcin0err
      000000F6H   SFRSYM    DATA     BYTE      OTGTRIRQ
      000000A2H   SFRSYM    DATA     BYTE      GPIOAOUTEN
      000000EBH   SFRSYM    DATA     BYTE      LED_SEG_RC_EN

      00FF1200H   BLOCK     ECODE    ---       LVL=0
      00FF1204H   BLOCK     ECODE    NEAR LAB  LVL=1
      R15         REGSYM    ---      BYTE      sfr_temp
      R10         REGSYM    ---      BYTE      need_clr
      ---         BLOCKEND  ---      ---       LVL=1
      00FF1200H   LINE      ECODE    ---       #31
      00FF1204H   LINE      ECODE    ---       #32
      00FF1204H   LINE      ECODE    ---       #33
      00FF1207H   LINE      ECODE    ---       #36
      00FF120AH   LINE      ECODE    ---       #37
      00FF1211H   LINE      ECODE    ---       #39
      00FF1215H   LINE      ECODE    ---       #40
      00FF1218H   LINE      ECODE    ---       #41
      00FF1218H   LINE      ECODE    ---       #43
      00FF121AH   LINE      ECODE    ---       #45
      00FF121FH   LINE      ECODE    ---       #46
      00FF1221H   LINE      ECODE    ---       #48
      00FF122DH   LINE      ECODE    ---       #49
      00FF1230H   LINE      ECODE    ---       #51
      00FF123DH   LINE      ECODE    ---       #54
      00FF1254H   LINE      ECODE    ---       #56
L251 LINKER/LOCATER V4.25                                                             12/13/2018  16:28:37  PAGE 48


      00FF1256H   LINE      ECODE    ---       #57
      00FF1256H   LINE      ECODE    ---       #58
      00FF1258H   LINE      ECODE    ---       #59
      00FF1258H   LINE      ECODE    ---       #62
      00FF125DH   LINE      ECODE    ---       #63
      00FF125DH   LINE      ECODE    ---       #65
      00FF1264H   LINE      ECODE    ---       #66
      00FF1269H   LINE      ECODE    ---       #68
      00FF126FH   LINE      ECODE    ---       #70
      00FF1275H   LINE      ECODE    ---       #71
      00FF1275H   LINE      ECODE    ---       #72
      00FF1277H   LINE      ECODE    ---       #73
      00FF1277H   LINE      ECODE    ---       #77
      00FF127CH   LINE      ECODE    ---       #78
      00FF1282H   LINE      ECODE    ---       #79
      00FF1284H   LINE      ECODE    ---       #80
      00FF1284H   LINE      ECODE    ---       #81
      00FF1289H   LINE      ECODE    ---       #83
      00FF128EH   LINE      ECODE    ---       #85
      00FF129EH   LINE      ECODE    ---       #87
      00FF129EH   LINE      ECODE    ---       #88
      00FF12A0H   LINE      ECODE    ---       #89
      00FF12A0H   LINE      ECODE    ---       #90
      00FF12A3H   LINE      ECODE    ---       #91
      00FF12A6H   LINE      ECODE    ---       #92
      00FF12A6H   LINE      ECODE    ---       #95
      00FF12ABH   LINE      ECODE    ---       #97
      00FF12BBH   LINE      ECODE    ---       #99
      00FF12BEH   LINE      ECODE    ---       #100
      00FF12C1H   LINE      ECODE    ---       #101
      00FF12D0H   LINE      ECODE    ---       #102
      00FF12D5H   LINE      ECODE    ---       #103
      00FF12DAH   LINE      ECODE    ---       #104
      00FF12EFH   LINE      ECODE    ---       #105
      00FF12F2H   LINE      ECODE    ---       #106
      00FF12F5H   LINE      ECODE    ---       #107
      00FF12F5H   LINE      ECODE    ---       #108
      00FF12FBH   LINE      ECODE    ---       #109
      00FF12FBH   LINE      ECODE    ---       #110
      00FF12FEH   LINE      ECODE    ---       #112
      00FF130AH   LINE      ECODE    ---       #114
      00FF130FH   LINE      ECODE    ---       #115
      00FF1314H   LINE      ECODE    ---       #116
      00FF1324H   LINE      ECODE    ---       #118
      00FF1327H   LINE      ECODE    ---       #119
      00FF132AH   LINE      ECODE    ---       #120
      00FF132DH   LINE      ECODE    ---       #121
      00FF1330H   LINE      ECODE    ---       #122
      00FF1336H   LINE      ECODE    ---       #123
      00FF133BH   LINE      ECODE    ---       #124
      00FF1350H   LINE      ECODE    ---       #126
      00FF1352H   LINE      ECODE    ---       #127
      00FF1352H   LINE      ECODE    ---       #128
      00FF1358H   LINE      ECODE    ---       #130
      00FF135EH   LINE      ECODE    ---       #131
      00FF135EH   LINE      ECODE    ---       #133
      00FF1361H   LINE      ECODE    ---       #134
      00FF1364H   LINE      ECODE    ---       #135
      00FF1367H   LINE      ECODE    ---       #136
      00FF136FH   LINE      ECODE    ---       #137
      00FF138AH   LINE      ECODE    ---       #138
      00FF1394H   LINE      ECODE    ---       #139
      00FF139AH   LINE      ECODE    ---       #140
      ---         BLOCKEND  ---      ---       LVL=0

L251 LINKER/LOCATER V4.25                                                             12/13/2018  16:28:37  PAGE 49


      ---         MODULE    ---      ---       uart_apitable
      00FF13A4H   PUBLIC    ECODE    ---       UART_API_TABLE
      00000686H   SYMBOL    BIT      ---       AC
      000000E0H   SYMBOL    NUMBER   ---       ACC
      000000F7H   SYMBOL    NUMBER   ---       ACC_BITMAPHI
      000000F8H   SYMBOL    NUMBER   ---       ACC_BITMAPLO
      0000008AH   SYMBOL    NUMBER   ---       ACC_BLKLEN_LENHI
      0000008BH   SYMBOL    NUMBER   ---       ACC_BLKNUM_LENLO
      000000F1H   SYMBOL    NUMBER   ---       ACC_CMPDATA0_SUMHIE
      000000F2H   SYMBOL    NUMBER   ---       ACC_CMPDATA1_SUMHI
      000000F3H   SYMBOL    NUMBER   ---       ACC_CMPDATA2_SUMLO
      000000F4H   SYMBOL    NUMBER   ---       ACC_CMPDATA3_SUMLOE
      00000089H   SYMBOL    NUMBER   ---       ACC_CTRL
      0000008CH   SYMBOL    NUMBER   ---       ACC_FIFO
      000000F5H   SYMBOL    NUMBER   ---       ACC_MATCNTHI
      000000F6H   SYMBOL    NUMBER   ---       ACC_MATCNTLO
      000000F1H   SYMBOL    NUMBER   ---       ADC_CTL0
      000000FDH   SYMBOL    NUMBER   ---       ADC_CTL1
      000000BDH   SYMBOL    NUMBER   ---       ADC_DAC_CLK_CTL
      000000F8H   SYMBOL    NUMBER   ---       ADC_FIFOCTL0
      000000FCH   SYMBOL    NUMBER   ---       ADC_FIFOCTL1
      000000F7H   SYMBOL    NUMBER   ---       ADC_FIFO_DAT
      000000F3H   SYMBOL    NUMBER   ---       ADC_GAIN0
      000000F4H   SYMBOL    NUMBER   ---       ADC_GAIN1
      000000A2H   SYMBOL    NUMBER   ---       ADC_SRFT_CTL0
      000000A3H   SYMBOL    NUMBER   ---       ADC_SRFT_CTL1
      000000A4H   SYMBOL    NUMBER   ---       ADC_SRFT_CTL2
      000000A5H   SYMBOL    NUMBER   ---       ADC_SRFT_CTL3
      000000A6H   SYMBOL    NUMBER   ---       ADC_SRFT_CTL4
      000000F5H   SYMBOL    NUMBER   ---       ADC_TUNE0
      000000F6H   SYMBOL    NUMBER   ---       ADC_TUNE1
      000000D3H   SYMBOL    NUMBER   ---       AD_SELECT
      000000DCH   SYMBOL    NUMBER   ---       AD_SELECT1
      000000C4H   SYMBOL    NUMBER   ---       AECLKCTL
      000000E8H   SYMBOL    NUMBER   ---       AIE
      000000C0H   SYMBOL    NUMBER   ---       AIF
      000000F2H   SYMBOL    NUMBER   ---       AINOP_CTL
      000000F7H   SYMBOL    NUMBER   ---       AIPH
      000000F8H   SYMBOL    NUMBER   ---       AIPL
      000000ADH   SYMBOL    NUMBER   ---       AUCODECBIRRATEH
      000000AEH   SYMBOL    NUMBER   ---       AUCODECBIRRATEL
      000000B2H   SYMBOL    NUMBER   ---       AUCODECCTIMEH
      000000B3H   SYMBOL    NUMBER   ---       AUCODECCTIMEM
      000000B4H   SYMBOL    NUMBER   ---       AUCODECCTIMES
      00000090H   SYMBOL    NUMBER   ---       AUCODECCTL
      00000092H   SYMBOL    NUMBER   ---       AUCODECDEBUG
      00000095H   SYMBOL    NUMBER   ---       AUCODECDEBUG2
      00000097H   SYMBOL    NUMBER   ---       AUCODECDECSTATEH
      00000098H   SYMBOL    NUMBER   ---       AUCODECDECSTATEL
      00000093H   SYMBOL    NUMBER   ---       AUCODECFIFOCTL
      00000094H   SYMBOL    NUMBER   ---       AUCODECFIFODATA
      000000ACH   SYMBOL    NUMBER   ---       AUCODECHEADERINFO
      000000A9H   SYMBOL    NUMBER   ---       AUCODECIE
      000000AAH   SYMBOL    NUMBER   ---       AUCODECIP
      000000AFH   SYMBOL    NUMBER   ---       AUCODECTTIMEH
      000000B0H   SYMBOL    NUMBER   ---       AUCODECTTIMEM
      000000B1H   SYMBOL    NUMBER   ---       AUCODECTTIMES
      00000091H   SYMBOL    NUMBER   ---       AUDEBUGLENGTH
      000000ABH   SYMBOL    NUMBER   ---       AUDECENCCTL
      000000B9H   SYMBOL    NUMBER   ---       AUDIO_PLL_CTL
      00000089H   SYMBOL    NUMBER   ---       AUTOINTIMER
      000000ECH   SYMBOL    NUMBER   ---       AUTONAKCTRL
      000000F0H   SYMBOL    NUMBER   ---       B
      00000091H   SYMBOL    NUMBER   ---       BATADC_DATA
      0000008BH   SYMBOL    NUMBER   ---       BDG_CTL
L251 LINKER/LOCATER V4.25                                                             12/13/2018  16:28:37  PAGE 50


      0000008CH   SYMBOL    NUMBER   ---       BDG_VOL
      000000C2H   SYMBOL    NUMBER   ---       BEPCTL1
      000000C3H   SYMBOL    NUMBER   ---       BEPCTL2
      000000C4H   SYMBOL    NUMBER   ---       BEPCTL3
      000000C5H   SYMBOL    NUMBER   ---       BEPCTL4
      000000C6H   SYMBOL    NUMBER   ---       BEPCTL5
      00000085H   SYMBOL    NUMBER   ---       BIRDINFO
      000000E1H   SYMBOL    NUMBER   ---       BIST_EN1
      000000E2H   SYMBOL    NUMBER   ---       BIST_EN2
      000000E4H   SYMBOL    NUMBER   ---       BIST_FIN1
      000000E5H   SYMBOL    NUMBER   ---       BIST_FIN2
      000000E7H   SYMBOL    NUMBER   ---       BIST_INFO1
      000000E9H   SYMBOL    NUMBER   ---       BIST_INFO2
      000000F3H   SYMBOL    NUMBER   ---       BKDOOR
      0000008EH   SYMBOL    NUMBER   ---       CCMCON
      0000008FH   SYMBOL    NUMBER   ---       CCMVAL
      000000F4H   SYMBOL    NUMBER   ---       CHIPVERSION
      000000A9H   SYMBOL    NUMBER   ---       CLKENCTL0
      000000AAH   SYMBOL    NUMBER   ---       CLKENCTL1
      000000ABH   SYMBOL    NUMBER   ---       CLKENCTL2
      000000CFH   SYMBOL    NUMBER   ---       CLKGATE
      000000A5H   SYMBOL    NUMBER   ---       CODEREPLACEENTRYEX
      000000A6H   SYMBOL    NUMBER   ---       CODEREPLACEENTRYH
      000000A7H   SYMBOL    NUMBER   ---       CODEREPLACEENTRYL
      000000C2H   SYMBOL    NUMBER   ---       CPUCLKCTL
      00000097H   SYMBOL    NUMBER   ---       CP_CTL0
      00000098H   SYMBOL    NUMBER   ---       CP_CTL1
      000000BBH   SYMBOL    NUMBER   ---       CTCCNTH
      000000D9H   SYMBOL    NUMBER   ---       CTCCNTH2
      000000BAH   SYMBOL    NUMBER   ---       CTCCNTL
      000000D8H   SYMBOL    NUMBER   ---       CTCCNTL2
      000000B9H   SYMBOL    NUMBER   ---       CTCCTL
      000000D7H   SYMBOL    NUMBER   ---       CTCCTL2
      000000CAH   SYMBOL    NUMBER   ---       CURRENTENERGY
      00000687H   SYMBOL    BIT      ---       CY
      000000E4H   SYMBOL    NUMBER   ---       DAC_ANALOG0
      000000E5H   SYMBOL    NUMBER   ---       DAC_ANALOG1
      000000D8H   SYMBOL    NUMBER   ---       DAC_CH0_FIFO_CTL0
      000000D9H   SYMBOL    NUMBER   ---       DAC_CH0_FIFO_CTL1
      000000DCH   SYMBOL    NUMBER   ---       DAC_CH0_PCMH
      000000DAH   SYMBOL    NUMBER   ---       DAC_CH0_PCML
      000000DBH   SYMBOL    NUMBER   ---       DAC_CH0_PCMM
      00000092H   SYMBOL    NUMBER   ---       DAC_CH0_SRFT_CTL0
      00000093H   SYMBOL    NUMBER   ---       DAC_CH0_SRFT_CTL1
      00000094H   SYMBOL    NUMBER   ---       DAC_CH0_SRFT_CTL2
      00000095H   SYMBOL    NUMBER   ---       DAC_CH0_SRFT_CTL3
      00000097H   SYMBOL    NUMBER   ---       DAC_CH0_SRFT_CTL4
      00000090H   SYMBOL    NUMBER   ---       DAC_CH0_SR_CTL
      00000091H   SYMBOL    NUMBER   ---       DAC_CH0_SR_GAIN
      000000DDH   SYMBOL    NUMBER   ---       DAC_CH1_FIFO_CTL0
      000000DEH   SYMBOL    NUMBER   ---       DAC_CH1_FIFO_CTL1
      000000E1H   SYMBOL    NUMBER   ---       DAC_CH1_PCMH
      000000DFH   SYMBOL    NUMBER   ---       DAC_CH1_PCML
      0000009AH   SYMBOL    NUMBER   ---       DAC_CH1_SRFT_CTL0
      0000009BH   SYMBOL    NUMBER   ---       DAC_CH1_SRFT_CTL1
      0000009CH   SYMBOL    NUMBER   ---       DAC_CH1_SRFT_CTL2
      0000009DH   SYMBOL    NUMBER   ---       DAC_CH1_SRFT_CTL3
      0000009EH   SYMBOL    NUMBER   ---       DAC_CH1_SRFT_CTL4
      00000098H   SYMBOL    NUMBER   ---       DAC_CH1_SR_CTL
      00000099H   SYMBOL    NUMBER   ---       DAC_CH1_SR_GAIN
      000000D5H   SYMBOL    NUMBER   ---       DAC_CTL
      000000E6H   SYMBOL    NUMBER   ---       DAC_TUNE0
      000000E7H   SYMBOL    NUMBER   ---       DAC_TUNE1
      000000D6H   SYMBOL    NUMBER   ---       DAC_VOLUME0
      000000D7H   SYMBOL    NUMBER   ---       DAC_VOLUME1
L251 LINKER/LOCATER V4.25                                                             12/13/2018  16:28:37  PAGE 51


      000000E3H   SYMBOL    NUMBER   ---       DBGAIE
      000000E2H   SYMBOL    NUMBER   ---       DBGAOE
      000000E5H   SYMBOL    NUMBER   ---       DBGBIE
      000000E4H   SYMBOL    NUMBER   ---       DBGBOE
      000000E6H   SYMBOL    NUMBER   ---       DBGCOE
      000000E9H   SYMBOL    NUMBER   ---       DBGDOE
      000000EEH   SYMBOL    NUMBER   ---       DBGMODE
      000000DBH   SYMBOL    NUMBER   ---       DBGSEL
      000000ECH   SYMBOL    NUMBER   ---       DDV_CTL0
      000000C1H   SYMBOL    NUMBER   ---       DISCARDLEN
      00000093H   SYMBOL    NUMBER   ---       DMA01234DBG
      00000094H   SYMBOL    NUMBER   ---       DMA0CTL0
      00000095H   SYMBOL    NUMBER   ---       DMA0CTL1
      0000009DH   SYMBOL    NUMBER   ---       DMA0DADDR0H
      0000009EH   SYMBOL    NUMBER   ---       DMA0DADDR0L
      0000009FH   SYMBOL    NUMBER   ---       DMA0DADDR0M
      000000A2H   SYMBOL    NUMBER   ---       DMA0DADDR1H
      000000A3H   SYMBOL    NUMBER   ---       DMA0DADDR1L
      000000A6H   SYMBOL    NUMBER   ---       DMA0DADDR1M
      000000A4H   SYMBOL    NUMBER   ---       DMA0FRAMELENH
      000000A5H   SYMBOL    NUMBER   ---       DMA0FRAMELENL
      00000092H   SYMBOL    NUMBER   ---       DMA0IE
      00000091H   SYMBOL    NUMBER   ---       DMA0IP
      00000097H   SYMBOL    NUMBER   ---       DMA0SADDR0H
      00000098H   SYMBOL    NUMBER   ---       DMA0SADDR0L
      0000009BH   SYMBOL    NUMBER   ---       DMA0SADDR0M
      00000099H   SYMBOL    NUMBER   ---       DMA0SADDR1H
      0000009AH   SYMBOL    NUMBER   ---       DMA0SADDR1L
      0000009CH   SYMBOL    NUMBER   ---       DMA0SADDR1M
      00000094H   SYMBOL    NUMBER   ---       DMA1CTL0
      00000095H   SYMBOL    NUMBER   ---       DMA1CTL1
      0000009DH   SYMBOL    NUMBER   ---       DMA1DADDR0H
      0000009EH   SYMBOL    NUMBER   ---       DMA1DADDR0L
      0000009FH   SYMBOL    NUMBER   ---       DMA1DADDR0M
      000000A2H   SYMBOL    NUMBER   ---       DMA1DADDR1H
      000000A3H   SYMBOL    NUMBER   ---       DMA1DADDR1L
      000000A6H   SYMBOL    NUMBER   ---       DMA1DADDR1M
      000000A4H   SYMBOL    NUMBER   ---       DMA1FRAMELENH
      000000A5H   SYMBOL    NUMBER   ---       DMA1FRAMELENL
      00000092H   SYMBOL    NUMBER   ---       DMA1IE
      00000091H   SYMBOL    NUMBER   ---       DMA1IP
      00000097H   SYMBOL    NUMBER   ---       DMA1SADDR0H
      00000098H   SYMBOL    NUMBER   ---       DMA1SADDR0L
      0000009BH   SYMBOL    NUMBER   ---       DMA1SADDR0M
      00000099H   SYMBOL    NUMBER   ---       DMA1SADDR1H
      0000009AH   SYMBOL    NUMBER   ---       DMA1SADDR1L
      0000009CH   SYMBOL    NUMBER   ---       DMA1SADDR1M
      00000094H   SYMBOL    NUMBER   ---       DMA2CTL0
      00000095H   SYMBOL    NUMBER   ---       DMA2CTL1
      0000009DH   SYMBOL    NUMBER   ---       DMA2DADDR0H
      0000009EH   SYMBOL    NUMBER   ---       DMA2DADDR0L
      0000009FH   SYMBOL    NUMBER   ---       DMA2DADDR0M
      000000A2H   SYMBOL    NUMBER   ---       DMA2DADDR1H
      000000A3H   SYMBOL    NUMBER   ---       DMA2DADDR1L
      000000A6H   SYMBOL    NUMBER   ---       DMA2DADDR1M
      000000A4H   SYMBOL    NUMBER   ---       DMA2FRAMELENH
      000000A5H   SYMBOL    NUMBER   ---       DMA2FRAMELENL
      00000092H   SYMBOL    NUMBER   ---       DMA2IE
      00000091H   SYMBOL    NUMBER   ---       DMA2IP
      00000097H   SYMBOL    NUMBER   ---       DMA2SADDR0H
      00000098H   SYMBOL    NUMBER   ---       DMA2SADDR0L
      0000009BH   SYMBOL    NUMBER   ---       DMA2SADDR0M
      00000099H   SYMBOL    NUMBER   ---       DMA2SADDR1H
      0000009AH   SYMBOL    NUMBER   ---       DMA2SADDR1L
      0000009CH   SYMBOL    NUMBER   ---       DMA2SADDR1M
L251 LINKER/LOCATER V4.25                                                             12/13/2018  16:28:37  PAGE 52


      00000094H   SYMBOL    NUMBER   ---       DMA3CTL0
      00000095H   SYMBOL    NUMBER   ---       DMA3CTL1
      0000009DH   SYMBOL    NUMBER   ---       DMA3DADDR0H
      0000009EH   SYMBOL    NUMBER   ---       DMA3DADDR0L
      0000009FH   SYMBOL    NUMBER   ---       DMA3DADDR0M
      000000A2H   SYMBOL    NUMBER   ---       DMA3DADDR1H
      000000A3H   SYMBOL    NUMBER   ---       DMA3DADDR1L
      000000A6H   SYMBOL    NUMBER   ---       DMA3DADDR1M
      000000A4H   SYMBOL    NUMBER   ---       DMA3FRAMELENH
      000000A5H   SYMBOL    NUMBER   ---       DMA3FRAMELENL
      00000092H   SYMBOL    NUMBER   ---       DMA3IE
      00000091H   SYMBOL    NUMBER   ---       DMA3IP
      00000097H   SYMBOL    NUMBER   ---       DMA3SADDR0H
      00000098H   SYMBOL    NUMBER   ---       DMA3SADDR0L
      0000009BH   SYMBOL    NUMBER   ---       DMA3SADDR0M
      00000099H   SYMBOL    NUMBER   ---       DMA3SADDR1H
      0000009AH   SYMBOL    NUMBER   ---       DMA3SADDR1L
      0000009CH   SYMBOL    NUMBER   ---       DMA3SADDR1M
      00000094H   SYMBOL    NUMBER   ---       DMA4CTL0
      00000095H   SYMBOL    NUMBER   ---       DMA4CTL1
      0000009DH   SYMBOL    NUMBER   ---       DMA4DADDR0H
      0000009EH   SYMBOL    NUMBER   ---       DMA4DADDR0L
      0000009FH   SYMBOL    NUMBER   ---       DMA4DADDR0M
      000000A2H   SYMBOL    NUMBER   ---       DMA4DADDR1H
      000000A3H   SYMBOL    NUMBER   ---       DMA4DADDR1L
      000000A6H   SYMBOL    NUMBER   ---       DMA4DADDR1M
      000000A4H   SYMBOL    NUMBER   ---       DMA4FRAMELENH
      000000A5H   SYMBOL    NUMBER   ---       DMA4FRAMELENL
      00000092H   SYMBOL    NUMBER   ---       DMA4IE
      00000091H   SYMBOL    NUMBER   ---       DMA4IP
      00000097H   SYMBOL    NUMBER   ---       DMA4SADDR0H
      00000098H   SYMBOL    NUMBER   ---       DMA4SADDR0L
      0000009BH   SYMBOL    NUMBER   ---       DMA4SADDR0M
      00000099H   SYMBOL    NUMBER   ---       DMA4SADDR1H
      0000009AH   SYMBOL    NUMBER   ---       DMA4SADDR1L
      0000009CH   SYMBOL    NUMBER   ---       DMA4SADDR1M
      00000094H   SYMBOL    NUMBER   ---       DMANCTL0
      00000095H   SYMBOL    NUMBER   ---       DMANCTL1
      0000009DH   SYMBOL    NUMBER   ---       DMANDADDR0H
      0000009EH   SYMBOL    NUMBER   ---       DMANDADDR0L
      0000009FH   SYMBOL    NUMBER   ---       DMANDADDR0M
      000000A2H   SYMBOL    NUMBER   ---       DMANDADDR1H
      000000A3H   SYMBOL    NUMBER   ---       DMANDADDR1L
      000000A6H   SYMBOL    NUMBER   ---       DMANDADDR1M
      000000A4H   SYMBOL    NUMBER   ---       DMANFRAMELENH
      000000A5H   SYMBOL    NUMBER   ---       DMANFRAMELENL
      00000092H   SYMBOL    NUMBER   ---       DMANIE
      00000091H   SYMBOL    NUMBER   ---       DMANIP
      00000097H   SYMBOL    NUMBER   ---       DMANSADDR0H
      00000098H   SYMBOL    NUMBER   ---       DMANSADDR0L
      0000009BH   SYMBOL    NUMBER   ---       DMANSADDR0M
      00000099H   SYMBOL    NUMBER   ---       DMANSADDR1H
      0000009AH   SYMBOL    NUMBER   ---       DMANSADDR1L
      0000009CH   SYMBOL    NUMBER   ---       DMANSADDR1M
      00000094H   SYMBOL    NUMBER   ---       DPDMCTRL
      00000083H   SYMBOL    NUMBER   ---       DPH
      00000082H   SYMBOL    NUMBER   ---       DPL
      00000084H   SYMBOL    NUMBER   ---       DPXL
      00000547H   SYMBOL    BIT      ---       EA
      000000A4H   SYMBOL    NUMBER   ---       EFUSE0
      000000A5H   SYMBOL    NUMBER   ---       EFUSE1
      000000A6H   SYMBOL    NUMBER   ---       EFUSE2
      000000A7H   SYMBOL    NUMBER   ---       EFUSE3
      000000A3H   SYMBOL    NUMBER   ---       EFUSE_CTL
      000000C6H   SYMBOL    NUMBER   ---       EP03IEN
L251 LINKER/LOCATER V4.25                                                             12/13/2018  16:28:37  PAGE 53


      000000C5H   SYMBOL    NUMBER   ---       EP03IRQ
      000000C8H   SYMBOL    NUMBER   ---       EP03TOKIEN
      000000C7H   SYMBOL    NUMBER   ---       EP03TOKIRQ
      00000099H   SYMBOL    NUMBER   ---       EP0CS_HCEP0CS
      000000ABH   SYMBOL    NUMBER   ---       EP0INDATA
      000000ACH   SYMBOL    NUMBER   ---       EP0OUTDATA
      0000008CH   SYMBOL    NUMBER   ---       EP1DMALENH
      0000008DH   SYMBOL    NUMBER   ---       EP1DMALENL
      0000008AH   SYMBOL    NUMBER   ---       EP1STADDRH
      0000008BH   SYMBOL    NUMBER   ---       EP1STADDRL
      000000E2H   SYMBOL    NUMBER   ---       EP2DMALENH
      000000E3H   SYMBOL    NUMBER   ---       EP2DMALENL
      000000B7H   SYMBOL    NUMBER   ---       EP2STADDRH
      000000B8H   SYMBOL    NUMBER   ---       EP2STADDRL
      000000CAH   SYMBOL    NUMBER   ---       EPRST
      000000D8H   SYMBOL    NUMBER   ---       EXTINT
      0000009EH   SYMBOL    NUMBER   ---       EXTMEM_CTL
      000000FEH   SYMBOL    NUMBER   ---       EXTMEM_DH
      000000FFH   SYMBOL    NUMBER   ---       EXTMEM_DL
      0000009FH   SYMBOL    NUMBER   ---       EXTMEM_WT
      00000096H   SYMBOL    NUMBER   ---       EXWAIT
      00000685H   SYMBOL    BIT      ---       F0
      000000A7H   SYMBOL    NUMBER   ---       FIFO1DAT
      000000A9H   SYMBOL    NUMBER   ---       FIFO2DAT
      000000AAH   SYMBOL    NUMBER   ---       FIFO3DAT
      000000D2H   SYMBOL    NUMBER   ---       FIFOCTRL
      000000D3H   SYMBOL    NUMBER   ---       FIXADDR0H
      000000BAH   SYMBOL    NUMBER   ---       FIXADDR0L
      000000B9H   SYMBOL    NUMBER   ---       FIXADDR0M
      000000BBH   SYMBOL    NUMBER   ---       FIXADDR1H
      000000BDH   SYMBOL    NUMBER   ---       FIXADDR1L
      000000BCH   SYMBOL    NUMBER   ---       FIXADDR1M
      000000C2H   SYMBOL    NUMBER   ---       FIXADDR2H
      000000C4H   SYMBOL    NUMBER   ---       FIXADDR2L
      000000C3H   SYMBOL    NUMBER   ---       FIXADDR2M
      000000C5H   SYMBOL    NUMBER   ---       FIXADDR3H
      000000C7H   SYMBOL    NUMBER   ---       FIXADDR3L
      000000C6H   SYMBOL    NUMBER   ---       FIXADDR3M
      000000C8H   SYMBOL    NUMBER   ---       FMCLKCTL
      000000CEH   SYMBOL    NUMBER   ---       FNADDR
      000000B9H   SYMBOL    NUMBER   ---       FRAMELEN0
      000000B8H   SYMBOL    NUMBER   ---       FRAMELEN1
      000000CCH   SYMBOL    NUMBER   ---       FRMCNTH
      000000CDH   SYMBOL    NUMBER   ---       FRMCNTL
      000000FCH   SYMBOL    NUMBER   ---       FSMPRESTATE
      000000A2H   SYMBOL    NUMBER   ---       FS_CTL
      000000C7H   SYMBOL    NUMBER   ---       GLOBALGAINH
      000000C9H   SYMBOL    NUMBER   ---       GLOBALGAINL
      000000C8H   SYMBOL    NUMBER   ---       GLOBALGAINM
      000000A4H   SYMBOL    NUMBER   ---       GPIOADAT
      000000A3H   SYMBOL    NUMBER   ---       GPIOAINEN
      000000A2H   SYMBOL    NUMBER   ---       GPIOAOUTEN
      000000A6H   SYMBOL    NUMBER   ---       GPIOAPDEN
      000000A5H   SYMBOL    NUMBER   ---       GPIOAPUEN
      000000AAH   SYMBOL    NUMBER   ---       GPIOBDAT
      000000A9H   SYMBOL    NUMBER   ---       GPIOBINEN
      000000A7H   SYMBOL    NUMBER   ---       GPIOBOUTEN
      000000ACH   SYMBOL    NUMBER   ---       GPIOBPDEN
      000000ABH   SYMBOL    NUMBER   ---       GPIOBPUEN
      000000AFH   SYMBOL    NUMBER   ---       GPIOCDAT
      000000AEH   SYMBOL    NUMBER   ---       GPIOCINEN
      000000ADH   SYMBOL    NUMBER   ---       GPIOCOUTEN
      000000B1H   SYMBOL    NUMBER   ---       GPIOCPDEN
      000000B0H   SYMBOL    NUMBER   ---       GPIOCPUEN
      000000B4H   SYMBOL    NUMBER   ---       GPIODDAT
L251 LINKER/LOCATER V4.25                                                             12/13/2018  16:28:37  PAGE 54


      000000B3H   SYMBOL    NUMBER   ---       GPIODINEN
      000000B2H   SYMBOL    NUMBER   ---       GPIODOUTEN
      000000B6H   SYMBOL    NUMBER   ---       GPIODPDEN
      000000B5H   SYMBOL    NUMBER   ---       GPIODPUEN
      000000B9H   SYMBOL    NUMBER   ---       GPIOEDAT
      000000B8H   SYMBOL    NUMBER   ---       GPIOEINEN
      000000B7H   SYMBOL    NUMBER   ---       GPIOEOUTEN
      000000BBH   SYMBOL    NUMBER   ---       GPIOEPDEN
      000000BAH   SYMBOL    NUMBER   ---       GPIOEPUEN
      000000BFH   SYMBOL    NUMBER   ---       GPIOFDAT
      000000BDH   SYMBOL    NUMBER   ---       GPIOFINEN
      000000BCH   SYMBOL    NUMBER   ---       GPIOFOUTEN
      000000C2H   SYMBOL    NUMBER   ---       GPIOFPDEN
      000000C1H   SYMBOL    NUMBER   ---       GPIOFPUEN
      000000C5H   SYMBOL    NUMBER   ---       GPIOGDAT
      000000C4H   SYMBOL    NUMBER   ---       GPIOGINEN
      000000C3H   SYMBOL    NUMBER   ---       GPIOGOUTEN
      000000C7H   SYMBOL    NUMBER   ---       GPIOGPDEN
      000000C6H   SYMBOL    NUMBER   ---       GPIOGPUEN
      000000D9H   SYMBOL    NUMBER   ---       HCEP03ERRIEN
      000000D8H   SYMBOL    NUMBER   ---       HCEP03ERRIRQ
      000000B0H   SYMBOL    NUMBER   ---       HCEP0CTRL
      000000D4H   SYMBOL    NUMBER   ---       HCFRMNH
      000000D5H   SYMBOL    NUMBER   ---       HCFRMNL
      000000D6H   SYMBOL    NUMBER   ---       HCFRMREMAINH
      000000D7H   SYMBOL    NUMBER   ---       HCFRMREMAINL
      000000B2H   SYMBOL    NUMBER   ---       HCIN0ERR
      000000E4H   SYMBOL    NUMBER   ---       HCIN0MAXPCK
      000000FDH   SYMBOL    NUMBER   ---       HCIN2CNTH
      000000FEH   SYMBOL    NUMBER   ---       HCIN2CNTL
      000000B5H   SYMBOL    NUMBER   ---       HCIN2CTRL
      000000B6H   SYMBOL    NUMBER   ---       HCIN2ERR
      000000E5H   SYMBOL    NUMBER   ---       HCIN2MAXPCKH
      000000E6H   SYMBOL    NUMBER   ---       HCIN2MAXPCKL
      000000EDH   SYMBOL    NUMBER   ---       HCINCTRL
      000000B8H   SYMBOL    NUMBER   ---       HCL_CLK_CTL
      000000B5H   SYMBOL    NUMBER   ---       HCL_INTERVAL_CTL
      000000B1H   SYMBOL    NUMBER   ---       HCOUT0ERR
      000000B3H   SYMBOL    NUMBER   ---       HCOUT1CTRL
      000000B4H   SYMBOL    NUMBER   ---       HCOUT1ERR
      000000E9H   SYMBOL    NUMBER   ---       HCOUT1MAXPCKH
      000000EAH   SYMBOL    NUMBER   ---       HCOUT1MAXPCKL
      000000B9H   SYMBOL    NUMBER   ---       HCOUT3CTRL
      000000BAH   SYMBOL    NUMBER   ---       HCOUT3ERR
      000000E7H   SYMBOL    NUMBER   ---       HCOUT3MAXPCK
      000000D3H   SYMBOL    NUMBER   ---       HCPORTCTRL
      000000B6H   SYMBOL    NUMBER   ---       HOSC_CTL
      000000CFH   SYMBOL    NUMBER   ---       HPFGAIN
      000000E2H   SYMBOL    NUMBER   ---       I2S_CTL0
      000000E3H   SYMBOL    NUMBER   ---       I2S_CTL1
      00000092H   SYMBOL    NUMBER   ---       IDVBUSCTRL
      000000A8H   SYMBOL    NUMBER   ---       IE0
      00000088H   SYMBOL    NUMBER   ---       IF0
      000000F5H   SYMBOL    NUMBER   ---       IFDEBUG0
      000000F6H   SYMBOL    NUMBER   ---       IFDEBUG1
      00000098H   SYMBOL    NUMBER   ---       IN0BC_HCOUT0BC
      0000009AH   SYMBOL    NUMBER   ---       IN1BCH_HCOUT1BCH
      0000009BH   SYMBOL    NUMBER   ---       IN1BCL_HCOUT1BCL
      0000009DH   SYMBOL    NUMBER   ---       IN1CS_HCOUT1CS
      0000009CH   SYMBOL    NUMBER   ---       IN1CTRL_HCOUT1CTRL
      000000A4H   SYMBOL    NUMBER   ---       IN3BC_HCOUT3BC
      000000A6H   SYMBOL    NUMBER   ---       IN3CS_HCOUT3CS
      000000A5H   SYMBOL    NUMBER   ---       IN3CTRL_HCOUT3CTRL
      000000B7H   SYMBOL    NUMBER   ---       IPH0
      000000B8H   SYMBOL    NUMBER   ---       IPL0
L251 LINKER/LOCATER V4.25                                                             12/13/2018  16:28:37  PAGE 55


      000000A5H   SYMBOL    NUMBER   ---       IR_CTL
      000000A9H   SYMBOL    NUMBER   ---       IR_HUC
      000000AAH   SYMBOL    NUMBER   ---       IR_KDC
      000000A7H   SYMBOL    NUMBER   ---       IR_LUC
      000000A6H   SYMBOL    NUMBER   ---       IR_STA
      000000C9H   SYMBOL    NUMBER   ---       IVECT
      000000CBH   SYMBOL    NUMBER   ---       KARAOKECTL
      0000008BH   SYMBOL    NUMBER   ---       LCD_DATA0
      0000008CH   SYMBOL    NUMBER   ---       LCD_DATA1
      00000098H   SYMBOL    NUMBER   ---       LCD_DATA10
      00000099H   SYMBOL    NUMBER   ---       LCD_DATA11
      0000009AH   SYMBOL    NUMBER   ---       LCD_DATA12
      0000009BH   SYMBOL    NUMBER   ---       LCD_DATA13
      0000009CH   SYMBOL    NUMBER   ---       LCD_DATA14
      0000009DH   SYMBOL    NUMBER   ---       LCD_DATA15
      0000008DH   SYMBOL    NUMBER   ---       LCD_DATA2
      00000090H   SYMBOL    NUMBER   ---       LCD_DATA3
      00000091H   SYMBOL    NUMBER   ---       LCD_DATA4
      00000092H   SYMBOL    NUMBER   ---       LCD_DATA5
      00000093H   SYMBOL    NUMBER   ---       LCD_DATA6
      00000094H   SYMBOL    NUMBER   ---       LCD_DATA7
      00000095H   SYMBOL    NUMBER   ---       LCD_DATA8
      00000097H   SYMBOL    NUMBER   ---       LCD_DATA9
      0000008AH   SYMBOL    NUMBER   ---       LCD_MODE
      000000CCH   SYMBOL    NUMBER   ---       LCHGAIN
      0000008AH   SYMBOL    NUMBER   ---       LDOPD_CTL
      000000C9H   SYMBOL    NUMBER   ---       LED_SEGLCDCLKCTL
      000000ECH   SYMBOL    NUMBER   ---       LED_SEG_BIAS_EN
      000000EBH   SYMBOL    NUMBER   ---       LED_SEG_RC_EN
      000000B7H   SYMBOL    NUMBER   ---       LOSC_CTL
      000000CEH   SYMBOL    NUMBER   ---       LPFGAIN
      00000092H   SYMBOL    NUMBER   ---       LRADC1_DATA
      00000093H   SYMBOL    NUMBER   ---       LRADC3_DATA
      00000094H   SYMBOL    NUMBER   ---       LRADC4_DATA
      00000095H   SYMBOL    NUMBER   ---       LRADC5_DATA
      000000B3H   SYMBOL    NUMBER   ---       MCU_PLL_CTL
      000000BCH   SYMBOL    NUMBER   ---       MCU_PLL_DEBUG_CTL
      000000BAH   SYMBOL    NUMBER   ---       MCU_PLL_SSC_CTL
      000000BBH   SYMBOL    NUMBER   ---       MCU_PLL_SSC_FSTEP
      000000F9H   SYMBOL    NUMBER   ---       MEMBANKCTL
      000000B4H   SYMBOL    NUMBER   ---       MEMCLKENCTL0
      000000ADH   SYMBOL    NUMBER   ---       MEMCLKSELCTL0
      000000AEH   SYMBOL    NUMBER   ---       MEMCLKSELCTL1
      000000C8H   SYMBOL    NUMBER   ---       MFP_CTL0
      000000C9H   SYMBOL    NUMBER   ---       MFP_CTL1
      000000CAH   SYMBOL    NUMBER   ---       MFP_CTL2
      000000CBH   SYMBOL    NUMBER   ---       MFP_CTL3
      000000CCH   SYMBOL    NUMBER   ---       MFP_CTL4
      000000CDH   SYMBOL    NUMBER   ---       MFP_CTL5
      000000CEH   SYMBOL    NUMBER   ---       MFP_CTL6
      000000CFH   SYMBOL    NUMBER   ---       MFP_CTL7
      000000D2H   SYMBOL    NUMBER   ---       MFP_CTL8
      000000ADH   SYMBOL    NUMBER   ---       MP3BITRATEH
      000000AEH   SYMBOL    NUMBER   ---       MP3BITRATEL
      000000B2H   SYMBOL    NUMBER   ---       MP3CTIMEH
      000000B3H   SYMBOL    NUMBER   ---       MP3CTIMEM
      000000B4H   SYMBOL    NUMBER   ---       MP3CTIMES
      000000ABH   SYMBOL    NUMBER   ---       MP3CTL
      000000ABH   SYMBOL    NUMBER   ---       MP3ENCCTL
      000000ACH   SYMBOL    NUMBER   ---       MP3ENCINFO
      000000BAH   SYMBOL    NUMBER   ---       MP3FILELEN1
      000000B9H   SYMBOL    NUMBER   ---       MP3FILELEN2
      000000B8H   SYMBOL    NUMBER   ---       MP3FILELEN3
      000000B5H   SYMBOL    NUMBER   ---       MP3FRAMENUMH
      000000B7H   SYMBOL    NUMBER   ---       MP3FRAMENUML
L251 LINKER/LOCATER V4.25                                                             12/13/2018  16:28:37  PAGE 56


      000000B6H   SYMBOL    NUMBER   ---       MP3FRAMENUMM
      000000ACH   SYMBOL    NUMBER   ---       MP3HEADERINFO
      000000BBH   SYMBOL    NUMBER   ---       MP3HEADERSYNCTL
      000000A9H   SYMBOL    NUMBER   ---       MP3IE
      000000AAH   SYMBOL    NUMBER   ---       MP3IP
      000000AFH   SYMBOL    NUMBER   ---       MP3TTIMEH
      000000B0H   SYMBOL    NUMBER   ---       MP3TTIMEM
      000000B1H   SYMBOL    NUMBER   ---       MP3TTIMES
      000000A1H   SYMBOL    NUMBER   ---       MPAGE
      00000086H   SYMBOL    NUMBER   ---       MRCR1
      00000089H   SYMBOL    NUMBER   ---       MRCR2
      0000009FH   SYMBOL    NUMBER   ---       MRCR3
      0000008DH   SYMBOL    NUMBER   ---       MULTI_USED
      000000DCH   SYMBOL    NUMBER   ---       OTGCTRL
      000000DEH   SYMBOL    NUMBER   ---       OTGIEN
      000000DAH   SYMBOL    NUMBER   ---       OTGIRQ
      000000DBH   SYMBOL    NUMBER   ---       OTGSTATE
      000000DDH   SYMBOL    NUMBER   ---       OTGSTATUS
      000000F5H   SYMBOL    NUMBER   ---       OTGTRIEN
      000000F6H   SYMBOL    NUMBER   ---       OTGTRIRQ
      00000097H   SYMBOL    NUMBER   ---       OUT0BC_HCIN0BC
      0000009EH   SYMBOL    NUMBER   ---       OUT2BCH_HCIN2BCH
      0000009FH   SYMBOL    NUMBER   ---       OUT2BCL_HCIN2BCL
      000000A3H   SYMBOL    NUMBER   ---       OUT2CS_HCIN2CS
      000000A2H   SYMBOL    NUMBER   ---       OUT2CTRL_HCIN2CTRL
      00000090H   SYMBOL    NUMBER   ---       OUTPCKCNTH
      00000091H   SYMBOL    NUMBER   ---       OUTPCKCNTL
      00000682H   SYMBOL    BIT      ---       OV
      00000680H   SYMBOL    BIT      ---       P
      000000A0H   SYMBOL    NUMBER   ---       P2
      000000D5H   SYMBOL    NUMBER   ---       PADDRV0
      000000D6H   SYMBOL    NUMBER   ---       PADDRV1
      000000D7H   SYMBOL    NUMBER   ---       PADDRV2
      000000D9H   SYMBOL    NUMBER   ---       PADDRV3
      000000DAH   SYMBOL    NUMBER   ---       PADDRV4
      000000D4H   SYMBOL    NUMBER   ---       PADPUPD
      00000090H   SYMBOL    NUMBER   ---       PAGEADDR0H
      00000091H   SYMBOL    NUMBER   ---       PAGEADDR0L
      00000092H   SYMBOL    NUMBER   ---       PAGEADDR1H
      00000093H   SYMBOL    NUMBER   ---       PAGEADDR1L
      00000094H   SYMBOL    NUMBER   ---       PAGEADDR2H
      00000095H   SYMBOL    NUMBER   ---       PAGEADDR2L
      00000098H   SYMBOL    NUMBER   ---       PAGEADDR3H
      00000099H   SYMBOL    NUMBER   ---       PAGEADDR3L
      0000009AH   SYMBOL    NUMBER   ---       PAGEADDR4H
      0000009BH   SYMBOL    NUMBER   ---       PAGEADDR4L
      0000009CH   SYMBOL    NUMBER   ---       PAGEADDR5H
      0000009DH   SYMBOL    NUMBER   ---       PAGEADDR5L
      0000009EH   SYMBOL    NUMBER   ---       PAGEADDR6H
      0000009FH   SYMBOL    NUMBER   ---       PAGEADDR6L
      000000A2H   SYMBOL    NUMBER   ---       PAGEADDR7H
      000000A3H   SYMBOL    NUMBER   ---       PAGEADDR7L
      000000D8H   SYMBOL    NUMBER   ---       PAGEADDR8H
      000000D9H   SYMBOL    NUMBER   ---       PAGEADDR8L
      000000DAH   SYMBOL    NUMBER   ---       PAGEADDR9H
      000000DBH   SYMBOL    NUMBER   ---       PAGEADDR9L
      000000B0H   SYMBOL    NUMBER   ---       PAGEADDRMASK0
      000000B1H   SYMBOL    NUMBER   ---       PAGEADDRMASK1
      000000B2H   SYMBOL    NUMBER   ---       PAGEADDRMASK2
      000000B3H   SYMBOL    NUMBER   ---       PAGEADDRMASK3
      000000B4H   SYMBOL    NUMBER   ---       PAGEADDRMASK4
      000000B5H   SYMBOL    NUMBER   ---       PAGEADDRMASK5
      000000B6H   SYMBOL    NUMBER   ---       PAGEADDRMASK6
      000000D2H   SYMBOL    NUMBER   ---       PAGEADDRMASK7
      000000D4H   SYMBOL    NUMBER   ---       PAGEADDRMASK8
L251 LINKER/LOCATER V4.25                                                             12/13/2018  16:28:37  PAGE 57


      000000D5H   SYMBOL    NUMBER   ---       PAGEADDRMASK9
      000000F4H   SYMBOL    NUMBER   ---       PAGEMISSENTRYEX
      000000F5H   SYMBOL    NUMBER   ---       PAGEMISSENTRYH
      000000F6H   SYMBOL    NUMBER   ---       PAGEMISSENTRYL
      000000EBH   SYMBOL    NUMBER   ---       PA_APCTL
      000000EAH   SYMBOL    NUMBER   ---       PA_CTL
      000000E9H   SYMBOL    NUMBER   ---       PA_VOLUME
      00000087H   SYMBOL    NUMBER   ---       PCON
      000000BDH   SYMBOL    NUMBER   ---       PHYSICALADDRH
      000000BFH   SYMBOL    NUMBER   ---       PHYSICALADDRL
      00000090H   SYMBOL    NUMBER   ---       PMUADC_CTL
      000000D0H   SYMBOL    NUMBER   ---       PSW
      000000D1H   SYMBOL    NUMBER   ---       PSW1
      000000C3H   SYMBOL    NUMBER   ---       PWMCLKCTL
      000000AFH   SYMBOL    NUMBER   ---       PWMDUTY
      000000CDH   SYMBOL    NUMBER   ---       RCHGAIN
      000000C8H   SYMBOL    NUMBER   ---       REDIRECTADDR0
      000000C9H   SYMBOL    NUMBER   ---       REDIRECTADDR1
      000000CAH   SYMBOL    NUMBER   ---       REDIRECTADDR2
      000000CBH   SYMBOL    NUMBER   ---       REDIRECTADDR3
      000000CCH   SYMBOL    NUMBER   ---       REDIRECTADDR4
      000000CDH   SYMBOL    NUMBER   ---       REDIRECTADDR5
      000000CEH   SYMBOL    NUMBER   ---       REDIRECTADDR6
      000000CFH   SYMBOL    NUMBER   ---       REDIRECTADDR7
      000000D6H   SYMBOL    NUMBER   ---       REDIRECTADDR8
      000000D7H   SYMBOL    NUMBER   ---       REDIRECTADDR9
      00000683H   SYMBOL    BIT      ---       RS0
      00000684H   SYMBOL    BIT      ---       RS1
      000000B3H   SYMBOL    NUMBER   ---       RTCALMH
      000000B2H   SYMBOL    NUMBER   ---       RTCALMM
      000000B1H   SYMBOL    NUMBER   ---       RTCALMS
      000000BCH   SYMBOL    NUMBER   ---       RTCRDM0
      000000BDH   SYMBOL    NUMBER   ---       RTCRDM1
      000000C8H   SYMBOL    NUMBER   ---       RTCRDM10
      000000C9H   SYMBOL    NUMBER   ---       RTCRDM11
      000000CAH   SYMBOL    NUMBER   ---       RTCRDM12
      000000CBH   SYMBOL    NUMBER   ---       RTCRDM13
      000000CCH   SYMBOL    NUMBER   ---       RTCRDM14
      000000CDH   SYMBOL    NUMBER   ---       RTCRDM15
      000000CEH   SYMBOL    NUMBER   ---       RTCRDM16
      000000CFH   SYMBOL    NUMBER   ---       RTCRDM17
      000000D2H   SYMBOL    NUMBER   ---       RTCRDM18
      000000D3H   SYMBOL    NUMBER   ---       RTCRDM19
      000000BFH   SYMBOL    NUMBER   ---       RTCRDM2
      000000D4H   SYMBOL    NUMBER   ---       RTCRDM20
      000000D5H   SYMBOL    NUMBER   ---       RTCRDM21
      000000D6H   SYMBOL    NUMBER   ---       RTCRDM22
      000000C1H   SYMBOL    NUMBER   ---       RTCRDM3
      000000C2H   SYMBOL    NUMBER   ---       RTCRDM4
      000000C3H   SYMBOL    NUMBER   ---       RTCRDM5
      000000C4H   SYMBOL    NUMBER   ---       RTCRDM6
      000000C5H   SYMBOL    NUMBER   ---       RTCRDM7
      000000C6H   SYMBOL    NUMBER   ---       RTCRDM8
      000000C7H   SYMBOL    NUMBER   ---       RTCRDM9
      000000B4H   SYMBOL    NUMBER   ---       RTCRUPD
      000000AEH   SYMBOL    NUMBER   ---       RTCTIMED
      000000ADH   SYMBOL    NUMBER   ---       RTCTIMEH
      000000ACH   SYMBOL    NUMBER   ---       RTCTIMEMINT
      000000AFH   SYMBOL    NUMBER   ---       RTCTIMEMON
      000000ABH   SYMBOL    NUMBER   ---       RTCTIMES
      000000B0H   SYMBOL    NUMBER   ---       RTCTIMEY
      0000009DH   SYMBOL    NUMBER   ---       RTCVDD_RESERVED
      000000A9H   SYMBOL    NUMBER   ---       RTC_CTL0
      000000AAH   SYMBOL    NUMBER   ---       RTC_CTL1
      000000ACH   SYMBOL    NUMBER   ---       SDCLKCTL
L251 LINKER/LOCATER V4.25                                                             12/13/2018  16:28:37  PAGE 58


      00000099H   SYMBOL    NUMBER   ---       SD_BLK_NUM
      00000097H   SYMBOL    NUMBER   ---       SD_BLK_SIZE_H
      00000098H   SYMBOL    NUMBER   ---       SD_BLK_SIZE_L
      0000009AH   SYMBOL    NUMBER   ---       SD_CLK_CTL
      00000090H   SYMBOL    NUMBER   ---       SD_CMD
      00000091H   SYMBOL    NUMBER   ---       SD_CMD_ARGRSP
      0000009DH   SYMBOL    NUMBER   ---       SD_DATA_FIFO
      000000AEH   SYMBOL    NUMBER   ---       SD_DBG_CTL
      0000009CH   SYMBOL    NUMBER   ---       SD_INT_CTL
      0000009BH   SYMBOL    NUMBER   ---       SD_PAD_CTL
      00000092H   SYMBOL    NUMBER   ---       SD_RSP_POIN
      00000094H   SYMBOL    NUMBER   ---       SD_STATE
      00000093H   SYMBOL    NUMBER   ---       SD_TF_CTL
      0000009EH   SYMBOL    NUMBER   ---       SD_TIMEOUT_CTL
      000000ADH   SYMBOL    NUMBER   ---       SD_TIMING_CTL
      000000BBH   SYMBOL    NUMBER   ---       SETUPDAT0
      000000BCH   SYMBOL    NUMBER   ---       SETUPDAT1
      000000BDH   SYMBOL    NUMBER   ---       SETUPDAT2
      000000BFH   SYMBOL    NUMBER   ---       SETUPDAT3
      000000C1H   SYMBOL    NUMBER   ---       SETUPDAT4
      000000C2H   SYMBOL    NUMBER   ---       SETUPDAT5
      000000C3H   SYMBOL    NUMBER   ---       SETUPDAT6
      000000C4H   SYMBOL    NUMBER   ---       SETUPDAT7
      00000080H   SYMBOL    NUMBER   ---       SFR_BANK
      000000AFH   SYMBOL    NUMBER   ---       SHORTPCKIRQ
      000000ABH   SYMBOL    NUMBER   ---       SOFTCTL
      000000A9H   SYMBOL    NUMBER   ---       SOFTIE
      000000AAH   SYMBOL    NUMBER   ---       SOFTIP
      00000081H   SYMBOL    NUMBER   ---       SP
      000000B5H   SYMBOL    NUMBER   ---       SPDIFRX_CNT_WR0
      000000B6H   SYMBOL    NUMBER   ---       SPDIFRX_CNT_WR1
      000000B7H   SYMBOL    NUMBER   ---       SPDIFRX_CNT_WR2
      000000B2H   SYMBOL    NUMBER   ---       SPDIFRX_CSTAT
      000000B0H   SYMBOL    NUMBER   ---       SPDIFRX_CTL
      000000B4H   SYMBOL    NUMBER   ---       SPDIFRX_DAT
      000000B3H   SYMBOL    NUMBER   ---       SPDIFRX_DEBUG
      000000B1H   SYMBOL    NUMBER   ---       SPDIFRX_STAT
      000000BEH   SYMBOL    NUMBER   ---       SPH
      000000CAH   SYMBOL    NUMBER   ---       SPICLKCTL
      000000A2H   SYMBOL    NUMBER   ---       SPI_BCH
      0000009FH   SYMBOL    NUMBER   ---       SPI_BCL
      0000009CH   SYMBOL    NUMBER   ---       SPI_CLKDIV
      00000099H   SYMBOL    NUMBER   ---       SPI_CTL
      000000A3H   SYMBOL    NUMBER   ---       SPI_DEBUG
      0000009AH   SYMBOL    NUMBER   ---       SPI_DRQ
      000000C8H   SYMBOL    NUMBER   ---       SPI_RAND
      0000009EH   SYMBOL    NUMBER   ---       SPI_RXDAT
      000000C9H   SYMBOL    NUMBER   ---       SPI_SEED0
      000000CAH   SYMBOL    NUMBER   ---       SPI_SEED1
      0000009BH   SYMBOL    NUMBER   ---       SPI_STA
      0000009DH   SYMBOL    NUMBER   ---       SPI_TXDAT
      00000081H   SYMBOL    NUMBER   ---       SPL
      000000CCH   SYMBOL    NUMBER   ---       SRSCTL0
      000000CDH   SYMBOL    NUMBER   ---       SRSCTL1
      000000CEH   SYMBOL    NUMBER   ---       SRSCTL2
      000000BCH   SYMBOL    NUMBER   ---       SYNHEADERDATA1
      000000BDH   SYMBOL    NUMBER   ---       SYNHEADERDATA2
      0000009BH   SYMBOL    NUMBER   ---       SYSTEM_CTL
      0000009CH   SYMBOL    NUMBER   ---       SYSTEM_ONOFF
      000000FCH   SYMBOL    NUMBER   ---       TESTCOUNTERBYTE0
      000000FDH   SYMBOL    NUMBER   ---       TESTCOUNTERBYTE1
      000000FEH   SYMBOL    NUMBER   ---       TESTCOUNTERBYTE2
      000000FFH   SYMBOL    NUMBER   ---       TESTCOUNTERBYTE3
      000000F1H   SYMBOL    NUMBER   ---       TESTCOUNTERBYTE4
      0000009AH   SYMBOL    NUMBER   ---       TEST_CTL
L251 LINKER/LOCATER V4.25                                                             12/13/2018  16:28:37  PAGE 59


      000000B7H   SYMBOL    NUMBER   ---       TIMERHB
      000000B5H   SYMBOL    NUMBER   ---       TIMERLB
      000000B6H   SYMBOL    NUMBER   ---       TIMERMB
      000000A2H   SYMBOL    NUMBER   ---       TK_AUTO_HIGHTH_H
      000000A3H   SYMBOL    NUMBER   ---       TK_AUTO_HIGHTH_L
      0000009DH   SYMBOL    NUMBER   ---       TK_AUTO_LOWTH_H
      0000009EH   SYMBOL    NUMBER   ---       TK_AUTO_LOWTH_L
      0000009AH   SYMBOL    NUMBER   ---       TK_BL_CAL_TH
      0000009CH   SYMBOL    NUMBER   ---       TK_BUCKET_TH
      00000094H   SYMBOL    NUMBER   ---       TK_DB_CTL
      000000DAH   SYMBOL    NUMBER   ---       TK_DEBUG
      00000090H   SYMBOL    NUMBER   ---       TK_EN_CTL
      00000091H   SYMBOL    NUMBER   ---       TK_FUN_CTL
      00000092H   SYMBOL    NUMBER   ---       TK_IRQ_PD
      000000CAH   SYMBOL    NUMBER   ---       TK_KEY0_BL_H
      000000CCH   SYMBOL    NUMBER   ---       TK_KEY0_BL_L
      000000AEH   SYMBOL    NUMBER   ---       TK_KEY0_DATH
      000000AFH   SYMBOL    NUMBER   ---       TK_KEY0_DATL
      000000A4H   SYMBOL    NUMBER   ---       TK_KEY0_IDA_CTL
      000000BCH   SYMBOL    NUMBER   ---       TK_KEY0_RAWH
      000000BDH   SYMBOL    NUMBER   ---       TK_KEY0_RAWL
      000000CDH   SYMBOL    NUMBER   ---       TK_KEY1_BL_H
      000000CEH   SYMBOL    NUMBER   ---       TK_KEY1_BL_L
      000000B0H   SYMBOL    NUMBER   ---       TK_KEY1_DATH
      000000B1H   SYMBOL    NUMBER   ---       TK_KEY1_DATL
      000000A5H   SYMBOL    NUMBER   ---       TK_KEY1_IDA_CTL
      000000BFH   SYMBOL    NUMBER   ---       TK_KEY1_RAWH
      000000C1H   SYMBOL    NUMBER   ---       TK_KEY1_RAWL
      000000D2H   SYMBOL    NUMBER   ---       TK_KEY2_BL_H
      000000D3H   SYMBOL    NUMBER   ---       TK_KEY2_BL_L
      000000B2H   SYMBOL    NUMBER   ---       TK_KEY2_DATH
      000000B3H   SYMBOL    NUMBER   ---       TK_KEY2_DATL
      000000A6H   SYMBOL    NUMBER   ---       TK_KEY2_IDA_CTL
      000000C2H   SYMBOL    NUMBER   ---       TK_KEY2_RAWH
      000000C3H   SYMBOL    NUMBER   ---       TK_KEY2_RAWL
      000000D4H   SYMBOL    NUMBER   ---       TK_KEY3_BL_H
      000000D5H   SYMBOL    NUMBER   ---       TK_KEY3_BL_L
      000000B4H   SYMBOL    NUMBER   ---       TK_KEY3_DATH
      000000B5H   SYMBOL    NUMBER   ---       TK_KEY3_DATL
      000000A9H   SYMBOL    NUMBER   ---       TK_KEY3_IDA_CTL
      000000C4H   SYMBOL    NUMBER   ---       TK_KEY3_RAWH
      000000C5H   SYMBOL    NUMBER   ---       TK_KEY3_RAWL
      000000D6H   SYMBOL    NUMBER   ---       TK_KEY4_BL_H
      000000D7H   SYMBOL    NUMBER   ---       TK_KEY4_BL_L
      000000B6H   SYMBOL    NUMBER   ---       TK_KEY4_DATH
      000000B7H   SYMBOL    NUMBER   ---       TK_KEY4_DATL
      000000AAH   SYMBOL    NUMBER   ---       TK_KEY4_IDA_CTL
      000000C6H   SYMBOL    NUMBER   ---       TK_KEY4_RAWH
      000000C7H   SYMBOL    NUMBER   ---       TK_KEY4_RAWL
      000000D8H   SYMBOL    NUMBER   ---       TK_KEY5_BL_H
      000000D9H   SYMBOL    NUMBER   ---       TK_KEY5_BL_L
      000000B8H   SYMBOL    NUMBER   ---       TK_KEY5_DATH
      000000B9H   SYMBOL    NUMBER   ---       TK_KEY5_DATL
      000000ABH   SYMBOL    NUMBER   ---       TK_KEY5_IDA_CTL
      000000C8H   SYMBOL    NUMBER   ---       TK_KEY5_RAWH
      000000C9H   SYMBOL    NUMBER   ---       TK_KEY5_RAWL
      0000009BH   SYMBOL    NUMBER   ---       TK_NOISE_TH
      00000093H   SYMBOL    NUMBER   ---       TK_PRESS_STA
      00000099H   SYMBOL    NUMBER   ---       TK_PRESS_TH
      00000095H   SYMBOL    NUMBER   ---       TK_PWM_CNTH
      00000097H   SYMBOL    NUMBER   ---       TK_PWM_CNTL
      000000BAH   SYMBOL    NUMBER   ---       TK_RAW_PD
      000000ADH   SYMBOL    NUMBER   ---       TK_UPDAT_PD
      00000090H   SYMBOL    NUMBER   ---       UART_BR
      00000092H   SYMBOL    NUMBER   ---       UART_CTL
L251 LINKER/LOCATER V4.25                                                             12/13/2018  16:28:37  PAGE 60


      00000098H   SYMBOL    NUMBER   ---       UART_DEBUG
      00000093H   SYMBOL    NUMBER   ---       UART_DRQ
      00000091H   SYMBOL    NUMBER   ---       UART_MODE
      00000097H   SYMBOL    NUMBER   ---       UART_RXDAT
      00000094H   SYMBOL    NUMBER   ---       UART_STA
      00000095H   SYMBOL    NUMBER   ---       UART_TXDAT
      00000681H   SYMBOL    BIT      ---       UD
      00000086H   SYMBOL    NUMBER   ---       UDMAM
      000000CBH   SYMBOL    NUMBER   ---       USBCTRL_STUS
      000000EBH   SYMBOL    NUMBER   ---       USBEIRQ
      000000AEH   SYMBOL    NUMBER   ---       USBIEN_HCUSBIEN
      000000ADH   SYMBOL    NUMBER   ---       USBIRQ_HCUSBIRQ
      00000093H   SYMBOL    NUMBER   ---       USBSTATUS
      000000F7H   SYMBOL    NUMBER   ---       USB_EFUSE_REF
      00000095H   SYMBOL    NUMBER   ---       USB_PHYCTRL
      000000EFH   SYMBOL    NUMBER   ---       VDCTRL
      00000099H   SYMBOL    NUMBER   ---       VDD_RESERVED
      000000F1H   SYMBOL    NUMBER   ---       VDSTAT
      000000BBH   SYMBOL    NUMBER   ---       VIRTUALADDRH
      000000BCH   SYMBOL    NUMBER   ---       VIRTUALADDRL
      00000089H   SYMBOL    NUMBER   ---       VOUT_CTL
      000000B5H   SYMBOL    NUMBER   ---       WAVBLOCKNUMH
      000000B7H   SYMBOL    NUMBER   ---       WAVBLOCKNUML
      000000B6H   SYMBOL    NUMBER   ---       WAVBLOCKNUMM
      000000B2H   SYMBOL    NUMBER   ---       WAVCTIMEH
      000000B3H   SYMBOL    NUMBER   ---       WAVCTIMEM
      000000B4H   SYMBOL    NUMBER   ---       WAVCTIMES
      000000ABH   SYMBOL    NUMBER   ---       WAVCTL
      000000ABH   SYMBOL    NUMBER   ---       WAVENCCTL
      000000ACH   SYMBOL    NUMBER   ---       WAVENCINFO
      000000ACH   SYMBOL    NUMBER   ---       WAVHEADERINFO1
      000000ADH   SYMBOL    NUMBER   ---       WAVHEADERINFO2
      000000A9H   SYMBOL    NUMBER   ---       WAVIE
      000000AAH   SYMBOL    NUMBER   ---       WAVIP
      000000AFH   SYMBOL    NUMBER   ---       WAVTTIMEH
      000000B0H   SYMBOL    NUMBER   ---       WAVTTIMEM
      000000B1H   SYMBOL    NUMBER   ---       WAVTTIMES
      000000B8H   SYMBOL    NUMBER   ---       WDCTL
      000000ADH   SYMBOL    NUMBER   ---       WMABITRATEH
      000000AEH   SYMBOL    NUMBER   ---       WMABITRATEL
      000000B2H   SYMBOL    NUMBER   ---       WMACTIMEH
      000000B3H   SYMBOL    NUMBER   ---       WMACTIMEM
      000000B4H   SYMBOL    NUMBER   ---       WMACTIMES
      000000ABH   SYMBOL    NUMBER   ---       WMACTL
      000000ACH   SYMBOL    NUMBER   ---       WMAHEADERINFO
      000000A9H   SYMBOL    NUMBER   ---       WMAIE
      000000AAH   SYMBOL    NUMBER   ---       WMAIP
      000000B5H   SYMBOL    NUMBER   ---       WMAPACKNUMH
      000000B7H   SYMBOL    NUMBER   ---       WMAPACKNUML
      000000B6H   SYMBOL    NUMBER   ---       WMAPACKNUMM
      000000B8H   SYMBOL    NUMBER   ---       WMAPACKSIZEH
      000000BAH   SYMBOL    NUMBER   ---       WMAPACKSIZEL
      000000B9H   SYMBOL    NUMBER   ---       WMAPACKSIZEM
      000000AFH   SYMBOL    NUMBER   ---       WMATTIMEH
      000000B0H   SYMBOL    NUMBER   ---       WMATTIMEM
      000000B1H   SYMBOL    NUMBER   ---       WMATTIMES

      ---         MODULE    ---      ---       actos30api
      00FF0094H   PUBLIC    ECODE    ---       API_BANKSWITCH??
      00FF0094H   PUBLIC    ECODE    ---       API_CARDINOUT_MSG??
      00FF0090H   PUBLIC    ECODE    ---       API_CARDSETPARAM??
      00FF0098H   PUBLIC    ECODE    ---       API_CARD_DETECT_CTRL??
      00FF0090H   PUBLIC    ECODE    ---       API_DISABLEADC??
      00FF0090H   PUBLIC    ECODE    ---       API_DISABLEAIN??
      00FF0090H   PUBLIC    ECODE    ---       API_DISABLECLD??
L251 LINKER/LOCATER V4.25                                                             12/13/2018  16:28:37  PAGE 61


      00FF0090H   PUBLIC    ECODE    ---       API_DISABLEDAC??
      00FF0090H   PUBLIC    ECODE    ---       API_DISABLEPA??
      00FF0090H   PUBLIC    ECODE    ---       API_DISABLEPADDV??
      00FF0090H   PUBLIC    ECODE    ---       API_DRV_ACTIVEDRIVE??
      00FF0090H   PUBLIC    ECODE    ---       API_DRV_ACTIVEUD??
      00FF0090H   PUBLIC    ECODE    ---       API_DRV_CHECKCARD??
      00FF0090H   PUBLIC    ECODE    ---       API_DRV_DETECTDRIVE??
      00FF0090H   PUBLIC    ECODE    ---       API_DRV_DETECTUD??
      00FF0090H   PUBLIC    ECODE    ---       API_DRV_FORMATDRIVE??
      00FF0090H   PUBLIC    ECODE    ---       API_DRV_GETACTIVEUD??
      00FF0090H   PUBLIC    ECODE    ---       API_DRV_INSTALL??
      00FF0098H   PUBLIC    ECODE    ---       API_DRV_UNINSTALL??
      00FF0090H   PUBLIC    ECODE    ---       API_DSP_INITCODE??
      00FF0090H   PUBLIC    ECODE    ---       API_DSP_INITCODEEXP??
      00FF0090H   PUBLIC    ECODE    ---       API_ENABLEADC??
      00FF0090H   PUBLIC    ECODE    ---       API_ENABLEAIN??
      00FF0090H   PUBLIC    ECODE    ---       API_ENABLECLD??
      00FF0090H   PUBLIC    ECODE    ---       API_ENABLEDAC??
      00FF0090H   PUBLIC    ECODE    ---       API_ENABLEPA??
      00FF0090H   PUBLIC    ECODE    ---       API_ENABLEPADDV??
      00FF0090H   PUBLIC    ECODE    ---       API_EXECAP??
      00FF00B0H   PUBLIC    ECODE    ---       API_FS_BACKUP??
      00FF00B0H   PUBLIC    ECODE    ---       API_FS_CD??
      00FF00B0H   PUBLIC    ECODE    ---       API_FS_CDBYLN??
      00FF00B0H   PUBLIC    ECODE    ---       API_FS_DIR??
      00FF00B0H   PUBLIC    ECODE    ---       API_FS_DIRLAST??
      00FF00B0H   PUBLIC    ECODE    ---       API_FS_DIRPARNEXT??
      00FF00B0H   PUBLIC    ECODE    ---       API_FS_DIRPARPREV??
      00FF00B0H   PUBLIC    ECODE    ---       API_FS_DIRPREV??
      00FF00B0H   PUBLIC    ECODE    ---       API_FS_EXIT??
      00FF00B0H   PUBLIC    ECODE    ---       API_FS_FATTRALTER??
      00FF00B0H   PUBLIC    ECODE    ---       API_FS_FCLOSE??
      00FF00B0H   PUBLIC    ECODE    ---       API_FS_FCREATE??
      00FF00B0H   PUBLIC    ECODE    ---       API_FS_FCREATEBYLN??
      00FF00B0H   PUBLIC    ECODE    ---       API_FS_FOPEN??
      00FF00B0H   PUBLIC    ECODE    ---       API_FS_FOPENBYLN??
      00FF00B0H   PUBLIC    ECODE    ---       API_FS_FREAD??
      00FF00B0H   PUBLIC    ECODE    ---       API_FS_FREMOVE??
      00FF00B0H   PUBLIC    ECODE    ---       API_FS_FRENAME??
      00FF00B0H   PUBLIC    ECODE    ---       API_FS_FSEEK??
      00FF00B0H   PUBLIC    ECODE    ---       API_FS_FSETNAMEATTR??
      00FF00B0H   PUBLIC    ECODE    ---       API_FS_FTELL??
      00FF00B0H   PUBLIC    ECODE    ---       API_FS_FWRITE??
      00FF00B0H   PUBLIC    ECODE    ---       API_FS_GETCHECKSUM??
      00FF00B0H   PUBLIC    ECODE    ---       API_FS_GETCRTTIME??
      00FF00B0H   PUBLIC    ECODE    ---       API_FS_GETCURDIR??
      00FF00B0H   PUBLIC    ECODE    ---       API_FS_GETCURDIRENTRY??
      00FF00B0H   PUBLIC    ECODE    ---       API_FS_GETCURDIR_LAYER??
      00FF00B0H   PUBLIC    ECODE    ---       API_FS_GETFILELEN??
      00FF00B0H   PUBLIC    ECODE    ---       API_FS_GETINFO??
      00FF00B0H   PUBLIC    ECODE    ---       API_FS_GETNAME??
      00FF00B0H   PUBLIC    ECODE    ---       API_FS_GETSECPERCLUS??
      00FF00B0H   PUBLIC    ECODE    ---       API_FS_GETSPACE??
      00FF00B0H   PUBLIC    ECODE    ---       API_FS_GETUNALIGNEDLEN??
      00FF00B0H   PUBLIC    ECODE    ---       API_FS_GETWRTTIME??
      00FF00B0H   PUBLIC    ECODE    ---       API_FS_INIT??
      00FF00B0H   PUBLIC    ECODE    ---       API_FS_JUSTBEING??
      00FF00B0H   PUBLIC    ECODE    ---       API_FS_MAKEDIR??
      00FF00B0H   PUBLIC    ECODE    ---       API_FS_MAKEDIRBYLN??
      00FF00B0H   PUBLIC    ECODE    ---       API_FS_MODUNALIGNEDLEN??
      00FF00B0H   PUBLIC    ECODE    ---       API_FS_NORERASE??
      00FF00B0H   PUBLIC    ECODE    ---       API_FS_REMOVEDIR??
      00FF00B0H   PUBLIC    ECODE    ---       API_FS_RESTORE??
      00FF00B0H   PUBLIC    ECODE    ---       API_FS_SETCURDIR??
      00FF00B0H   PUBLIC    ECODE    ---       API_FS_SETCURDIRENTRY??
L251 LINKER/LOCATER V4.25                                                             12/13/2018  16:28:37  PAGE 62


      00FF00B0H   PUBLIC    ECODE    ---       API_FS_SETCURDIR_LAYER??
      00FF00B0H   PUBLIC    ECODE    ---       API_FS_SETMODE??
      00FF0090H   PUBLIC    ECODE    ---       API_GETAINGAIN??
      00FF0090H   PUBLIC    ECODE    ---       API_GETAUTORUNDISKCAP??
      00FF0090H   PUBLIC    ECODE    ---       API_GETBATTERY??
      00FF0090H   PUBLIC    ECODE    ---       API_GETCLDGAIN??
      00FF0090H   PUBLIC    ECODE    ---       API_GETDACRATE??
      00FF0090H   PUBLIC    ECODE    ---       API_GETDEFAULTCOMVAL??
      00FF0090H   PUBLIC    ECODE    ---       API_GETEXTRTCFLAG??
      00FF0090H   PUBLIC    ECODE    ---       API_GETFWVERSION??
      00FF0090H   PUBLIC    ECODE    ---       API_GETHIDEDISKCAP??
      00FF0090H   PUBLIC    ECODE    ---       API_GETMSCVOLUMELABEL??
      00FF0090H   PUBLIC    ECODE    ---       API_GETPACKAGE??
      00FF0090H   PUBLIC    ECODE    ---       API_GETPAVOLUME??
      00FF0090H   PUBLIC    ECODE    ---       API_GETSDCAP??
      00FF0090H   PUBLIC    ECODE    ---       API_GETSYSINFO??
      00FF0094H   PUBLIC    ECODE    ---       API_GETSYSMSG??
      00FF0090H   PUBLIC    ECODE    ---       API_GETUICAP??
      00FF0090H   PUBLIC    ECODE    ---       API_GETUSBATTRIBUTE??
      00FF0090H   PUBLIC    ECODE    ---       API_GETUSBCABLESTATUS??
      00FF0090H   PUBLIC    ECODE    ---       API_GETUSBSETUPINFO??
      00FF0090H   PUBLIC    ECODE    ---       API_GETUSBVIDPID??
      00FF0090H   PUBLIC    ECODE    ---       API_GETVMCAP??
      00FF0090H   PUBLIC    ECODE    ---       API_IRQ_INTERCEPT??
      00FF0090H   PUBLIC    ECODE    ---       API_IRQ_RELEASE??
      00FF00B4H   PUBLIC    ECODE    ---       API_MFS_CD??
      00FF00B4H   PUBLIC    ECODE    ---       API_MFS_DIR??
      00FF00B4H   PUBLIC    ECODE    ---       API_MFS_EXIT??
      00FF00B4H   PUBLIC    ECODE    ---       API_MFS_FCLOSE??
      00FF00B4H   PUBLIC    ECODE    ---       API_MFS_FOPEN??
      00FF00B4H   PUBLIC    ECODE    ---       API_MFS_FREAD??
      00FF00B4H   PUBLIC    ECODE    ---       API_MFS_GETCURDIR??
      00FF00B4H   PUBLIC    ECODE    ---       API_MFS_GETCURDIRENTRY??
      00FF00B4H   PUBLIC    ECODE    ---       API_MFS_GETFILELEN??
      00FF00B4H   PUBLIC    ECODE    ---       API_MFS_GETNAME??
      00FF00B4H   PUBLIC    ECODE    ---       API_MFS_GETSECPERCLUS??
      00FF00B4H   PUBLIC    ECODE    ---       API_MFS_GETUNALIGNEDLEN??
      00FF00B4H   PUBLIC    ECODE    ---       API_MFS_INIT??
      00FF00B4H   PUBLIC    ECODE    ---       API_MFS_JUSTBEING??
      00FF00B4H   PUBLIC    ECODE    ---       API_MFS_SETCURDIR??
      00FF00B4H   PUBLIC    ECODE    ---       API_MFS_SETCURDIRENTRY??
      00FF00B4H   PUBLIC    ECODE    ---       API_MFS_SETMODE??
      00FF0094H   PUBLIC    ECODE    ---       API_PUTSYSMSG??
      00FF0094H   PUBLIC    ECODE    ---       API_RESTOREBANKDATA??
      00FF0094H   PUBLIC    ECODE    ---       API_SAVEBANKDATA??
      00FF00A8H   PUBLIC    ECODE    ---       API_SD_BRE_SECTORREAD??
      00FF00A8H   PUBLIC    ECODE    ---       API_SD_BRE_SECTORWRITE??
      00FF0090H   PUBLIC    ECODE    ---       API_SD_FCLOSE??
      00FF0098H   PUBLIC    ECODE    ---       API_SD_FOPEN??
      00FF0094H   PUBLIC    ECODE    ---       API_SD_FREAD??
      00FF0094H   PUBLIC    ECODE    ---       API_SD_FSEEK??
      00FF0094H   PUBLIC    ECODE    ---       API_SD_FTELL??
      00FF0094H   PUBLIC    ECODE    ---       API_SD_READ??
      00FF0090H   PUBLIC    ECODE    ---       API_SETAINGAIN??
      00FF0090H   PUBLIC    ECODE    ---       API_SETCLDGAIN??
      00FF0090H   PUBLIC    ECODE    ---       API_SETDACRATE??
      00FF0090H   PUBLIC    ECODE    ---       API_SETDSPMIPS??
      00FF0090H   PUBLIC    ECODE    ---       API_SETPAVOLUME??
      00FF0098H   PUBLIC    ECODE    ---       API_SETPAVOLUME_LR??
      00FF0090H   PUBLIC    ECODE    ---       API_SETPLL??
      00FF0090H   PUBLIC    ECODE    ---       API_SETVDD??
      00FF0090H   PUBLIC    ECODE    ---       API_SPINOR_FW_UPGRD??
      00FF0090H   PUBLIC    ECODE    ---       API_STARTDSP??
      00FF0090H   PUBLIC    ECODE    ---       API_STOPDSP??
      00FF0094H   PUBLIC    ECODE    ---       API_TM_DELAY100US??
L251 LINKER/LOCATER V4.25                                                             12/13/2018  16:28:37  PAGE 63


      00FF0094H   PUBLIC    ECODE    ---       API_TM_DELAYMS??
      00FF0090H   PUBLIC    ECODE    ---       API_TM_GETDATE??
      00FF0090H   PUBLIC    ECODE    ---       API_TM_GETTIME??
      00FF0090H   PUBLIC    ECODE    ---       API_TM_KILLCLOCK??
      00FF0090H   PUBLIC    ECODE    ---       API_TM_KILLTIMER??
      00FF0090H   PUBLIC    ECODE    ---       API_TM_SETALARMTIME??
      00FF0090H   PUBLIC    ECODE    ---       API_TM_SETCLOCK??
      00FF0090H   PUBLIC    ECODE    ---       API_TM_SETDATE??
      00FF0090H   PUBLIC    ECODE    ---       API_TM_SETTIME??
      00FF0090H   PUBLIC    ECODE    ---       API_TM_SETTIMER??
      00FF00A8H   PUBLIC    ECODE    ---       API_UD_CLRVRAM??
      00FF00A8H   PUBLIC    ECODE    ---       API_UD_ERASE??
      00FF00A8H   PUBLIC    ECODE    ---       API_UD_EXIT??
      00FF00A8H   PUBLIC    ECODE    ---       API_UD_GETCAP??
      00FF00A8H   PUBLIC    ECODE    ---       API_UD_GETFLASHTYPE??
      00FF00A8H   PUBLIC    ECODE    ---       API_UD_GETREMAIN??
      00FF00A8H   PUBLIC    ECODE    ---       API_UD_GETSCTRSIZE??
      00FF00A8H   PUBLIC    ECODE    ---       API_UD_INIT??
      00FF00A8H   PUBLIC    ECODE    ---       API_UD_LOSE??
      00FF00ACH   PUBLIC    ECODE    ---       API_UD_SDCARDENDF2F??
      00FF00ACH   PUBLIC    ECODE    ---       API_UD_SDCARDEXIT??
      00FF00ACH   PUBLIC    ECODE    ---       API_UD_SDCARDGETCAP??
      00FF00ACH   PUBLIC    ECODE    ---       API_UD_SDCARDINIT??
      00FF00ACH   PUBLIC    ECODE    ---       API_UD_SDCARDSECTORREAD??
      00FF00ACH   PUBLIC    ECODE    ---       API_UD_SDCARDSECTORWRITE??
      00FF00ACH   PUBLIC    ECODE    ---       API_UD_SDCARDSTARTTRAN??
      00FF00ACH   PUBLIC    ECODE    ---       API_UD_SDCARDWPDETECT??
      00FF00A8H   PUBLIC    ECODE    ---       API_UD_SECTORREAD??
      00FF00A8H   PUBLIC    ECODE    ---       API_UD_SECTORWRITE??
      00FF00A8H   PUBLIC    ECODE    ---       API_UD_STARTREADWRITE??
      00FF00A8H   PUBLIC    ECODE    ---       API_UD_UPDATE??
      00FF00A8H   PUBLIC    ECODE    ---       API_UD_WPDETECT??
      00FF00A8H   PUBLIC    ECODE    ---       API_UH_DIRECT_STATUS??
      00FF0090H   PUBLIC    ECODE    ---       API_UH_POWEROFF??
      00FF0090H   PUBLIC    ECODE    ---       API_USBH_CHECK_UDISK??
      00FF0090H   PUBLIC    ECODE    ---       API_USB_CON_ENABLE??
      00FF0090H   PUBLIC    ECODE    ---       API_USB_DEFAULT_ISR_HANDLE??
      00FF0098H   PUBLIC    ECODE    ---       API_USB_DETECT_CTRL??
      00FF0090H   PUBLIC    ECODE    ---       API_VMREAD??
      00FF0090H   PUBLIC    ECODE    ---       API_VMWRITE??
      00FF009CH   PUBLIC    ECODE    ---       CLEARWATCHDOG??
      00FF00A0H   PUBLIC    ECODE    ---       ROMDI??
      00FF00A4H   PUBLIC    ECODE    ---       ROMEI??
      00000686H   SYMBOL    BIT      ---       AC
      000000E0H   SYMBOL    NUMBER   ---       ACC
      000000F7H   SYMBOL    NUMBER   ---       ACC_BITMAPHI
      000000F8H   SYMBOL    NUMBER   ---       ACC_BITMAPLO
      0000008AH   SYMBOL    NUMBER   ---       ACC_BLKLEN_LENHI
      0000008BH   SYMBOL    NUMBER   ---       ACC_BLKNUM_LENLO
      000000F1H   SYMBOL    NUMBER   ---       ACC_CMPDATA0_SUMHIE
      000000F2H   SYMBOL    NUMBER   ---       ACC_CMPDATA1_SUMHI
      000000F3H   SYMBOL    NUMBER   ---       ACC_CMPDATA2_SUMLO
      000000F4H   SYMBOL    NUMBER   ---       ACC_CMPDATA3_SUMLOE
      00000089H   SYMBOL    NUMBER   ---       ACC_CTRL
      0000008CH   SYMBOL    NUMBER   ---       ACC_FIFO
      000000F5H   SYMBOL    NUMBER   ---       ACC_MATCNTHI
      000000F6H   SYMBOL    NUMBER   ---       ACC_MATCNTLO
      000000F1H   SYMBOL    NUMBER   ---       ADC_CTL0
      000000FDH   SYMBOL    NUMBER   ---       ADC_CTL1
      000000BDH   SYMBOL    NUMBER   ---       ADC_DAC_CLK_CTL
      000000F8H   SYMBOL    NUMBER   ---       ADC_FIFOCTL0
      000000FCH   SYMBOL    NUMBER   ---       ADC_FIFOCTL1
      000000F7H   SYMBOL    NUMBER   ---       ADC_FIFO_DAT
      000000F3H   SYMBOL    NUMBER   ---       ADC_GAIN0
      000000F4H   SYMBOL    NUMBER   ---       ADC_GAIN1
L251 LINKER/LOCATER V4.25                                                             12/13/2018  16:28:37  PAGE 64


      000000A2H   SYMBOL    NUMBER   ---       ADC_SRFT_CTL0
      000000A3H   SYMBOL    NUMBER   ---       ADC_SRFT_CTL1
      000000A4H   SYMBOL    NUMBER   ---       ADC_SRFT_CTL2
      000000A5H   SYMBOL    NUMBER   ---       ADC_SRFT_CTL3
      000000A6H   SYMBOL    NUMBER   ---       ADC_SRFT_CTL4
      000000F5H   SYMBOL    NUMBER   ---       ADC_TUNE0
      000000F6H   SYMBOL    NUMBER   ---       ADC_TUNE1
      000000D3H   SYMBOL    NUMBER   ---       AD_SELECT
      000000DCH   SYMBOL    NUMBER   ---       AD_SELECT1
      000000C4H   SYMBOL    NUMBER   ---       AECLKCTL
      000000E8H   SYMBOL    NUMBER   ---       AIE
      000000C0H   SYMBOL    NUMBER   ---       AIF
      000000F2H   SYMBOL    NUMBER   ---       AINOP_CTL
      000000F7H   SYMBOL    NUMBER   ---       AIPH
      000000F8H   SYMBOL    NUMBER   ---       AIPL
      000000ADH   SYMBOL    NUMBER   ---       AUCODECBIRRATEH
      000000AEH   SYMBOL    NUMBER   ---       AUCODECBIRRATEL
      000000B2H   SYMBOL    NUMBER   ---       AUCODECCTIMEH
      000000B3H   SYMBOL    NUMBER   ---       AUCODECCTIMEM
      000000B4H   SYMBOL    NUMBER   ---       AUCODECCTIMES
      00000090H   SYMBOL    NUMBER   ---       AUCODECCTL
      00000092H   SYMBOL    NUMBER   ---       AUCODECDEBUG
      00000095H   SYMBOL    NUMBER   ---       AUCODECDEBUG2
      00000097H   SYMBOL    NUMBER   ---       AUCODECDECSTATEH
      00000098H   SYMBOL    NUMBER   ---       AUCODECDECSTATEL
      00000093H   SYMBOL    NUMBER   ---       AUCODECFIFOCTL
      00000094H   SYMBOL    NUMBER   ---       AUCODECFIFODATA
      000000ACH   SYMBOL    NUMBER   ---       AUCODECHEADERINFO
      000000A9H   SYMBOL    NUMBER   ---       AUCODECIE
      000000AAH   SYMBOL    NUMBER   ---       AUCODECIP
      000000AFH   SYMBOL    NUMBER   ---       AUCODECTTIMEH
      000000B0H   SYMBOL    NUMBER   ---       AUCODECTTIMEM
      000000B1H   SYMBOL    NUMBER   ---       AUCODECTTIMES
      00000091H   SYMBOL    NUMBER   ---       AUDEBUGLENGTH
      000000ABH   SYMBOL    NUMBER   ---       AUDECENCCTL
      000000B9H   SYMBOL    NUMBER   ---       AUDIO_PLL_CTL
      00000089H   SYMBOL    NUMBER   ---       AUTOINTIMER
      000000ECH   SYMBOL    NUMBER   ---       AUTONAKCTRL
      000000F0H   SYMBOL    NUMBER   ---       B
      00000091H   SYMBOL    NUMBER   ---       BATADC_DATA
      0000008BH   SYMBOL    NUMBER   ---       BDG_CTL
      0000008CH   SYMBOL    NUMBER   ---       BDG_VOL
      000000C2H   SYMBOL    NUMBER   ---       BEPCTL1
      000000C3H   SYMBOL    NUMBER   ---       BEPCTL2
      000000C4H   SYMBOL    NUMBER   ---       BEPCTL3
      000000C5H   SYMBOL    NUMBER   ---       BEPCTL4
      000000C6H   SYMBOL    NUMBER   ---       BEPCTL5
      00000085H   SYMBOL    NUMBER   ---       BIRDINFO
      000000E1H   SYMBOL    NUMBER   ---       BIST_EN1
      000000E2H   SYMBOL    NUMBER   ---       BIST_EN2
      000000E4H   SYMBOL    NUMBER   ---       BIST_FIN1
      000000E5H   SYMBOL    NUMBER   ---       BIST_FIN2
      000000E7H   SYMBOL    NUMBER   ---       BIST_INFO1
      000000E9H   SYMBOL    NUMBER   ---       BIST_INFO2
      000000F3H   SYMBOL    NUMBER   ---       BKDOOR
      0000008EH   SYMBOL    NUMBER   ---       CCMCON
      0000008FH   SYMBOL    NUMBER   ---       CCMVAL
      000000F4H   SYMBOL    NUMBER   ---       CHIPVERSION
      000000A9H   SYMBOL    NUMBER   ---       CLKENCTL0
      000000AAH   SYMBOL    NUMBER   ---       CLKENCTL1
      000000ABH   SYMBOL    NUMBER   ---       CLKENCTL2
      000000CFH   SYMBOL    NUMBER   ---       CLKGATE
      000000A5H   SYMBOL    NUMBER   ---       CODEREPLACEENTRYEX
      000000A6H   SYMBOL    NUMBER   ---       CODEREPLACEENTRYH
      000000A7H   SYMBOL    NUMBER   ---       CODEREPLACEENTRYL
L251 LINKER/LOCATER V4.25                                                             12/13/2018  16:28:37  PAGE 65


      000000C2H   SYMBOL    NUMBER   ---       CPUCLKCTL
      00000097H   SYMBOL    NUMBER   ---       CP_CTL0
      00000098H   SYMBOL    NUMBER   ---       CP_CTL1
      000000BBH   SYMBOL    NUMBER   ---       CTCCNTH
      000000D9H   SYMBOL    NUMBER   ---       CTCCNTH2
      000000BAH   SYMBOL    NUMBER   ---       CTCCNTL
      000000D8H   SYMBOL    NUMBER   ---       CTCCNTL2
      000000B9H   SYMBOL    NUMBER   ---       CTCCTL
      000000D7H   SYMBOL    NUMBER   ---       CTCCTL2
      000000CAH   SYMBOL    NUMBER   ---       CURRENTENERGY
      00000687H   SYMBOL    BIT      ---       CY
      000000E4H   SYMBOL    NUMBER   ---       DAC_ANALOG0
      000000E5H   SYMBOL    NUMBER   ---       DAC_ANALOG1
      000000D8H   SYMBOL    NUMBER   ---       DAC_CH0_FIFO_CTL0
      000000D9H   SYMBOL    NUMBER   ---       DAC_CH0_FIFO_CTL1
      000000DCH   SYMBOL    NUMBER   ---       DAC_CH0_PCMH
      000000DAH   SYMBOL    NUMBER   ---       DAC_CH0_PCML
      000000DBH   SYMBOL    NUMBER   ---       DAC_CH0_PCMM
      00000092H   SYMBOL    NUMBER   ---       DAC_CH0_SRFT_CTL0
      00000093H   SYMBOL    NUMBER   ---       DAC_CH0_SRFT_CTL1
      00000094H   SYMBOL    NUMBER   ---       DAC_CH0_SRFT_CTL2
      00000095H   SYMBOL    NUMBER   ---       DAC_CH0_SRFT_CTL3
      00000097H   SYMBOL    NUMBER   ---       DAC_CH0_SRFT_CTL4
      00000090H   SYMBOL    NUMBER   ---       DAC_CH0_SR_CTL
      00000091H   SYMBOL    NUMBER   ---       DAC_CH0_SR_GAIN
      000000DDH   SYMBOL    NUMBER   ---       DAC_CH1_FIFO_CTL0
      000000DEH   SYMBOL    NUMBER   ---       DAC_CH1_FIFO_CTL1
      000000E1H   SYMBOL    NUMBER   ---       DAC_CH1_PCMH
      000000DFH   SYMBOL    NUMBER   ---       DAC_CH1_PCML
      0000009AH   SYMBOL    NUMBER   ---       DAC_CH1_SRFT_CTL0
      0000009BH   SYMBOL    NUMBER   ---       DAC_CH1_SRFT_CTL1
      0000009CH   SYMBOL    NUMBER   ---       DAC_CH1_SRFT_CTL2
      0000009DH   SYMBOL    NUMBER   ---       DAC_CH1_SRFT_CTL3
      0000009EH   SYMBOL    NUMBER   ---       DAC_CH1_SRFT_CTL4
      00000098H   SYMBOL    NUMBER   ---       DAC_CH1_SR_CTL
      00000099H   SYMBOL    NUMBER   ---       DAC_CH1_SR_GAIN
      000000D5H   SYMBOL    NUMBER   ---       DAC_CTL
      000000E6H   SYMBOL    NUMBER   ---       DAC_TUNE0
      000000E7H   SYMBOL    NUMBER   ---       DAC_TUNE1
      000000D6H   SYMBOL    NUMBER   ---       DAC_VOLUME0
      000000D7H   SYMBOL    NUMBER   ---       DAC_VOLUME1
      000000E3H   SYMBOL    NUMBER   ---       DBGAIE
      000000E2H   SYMBOL    NUMBER   ---       DBGAOE
      000000E5H   SYMBOL    NUMBER   ---       DBGBIE
      000000E4H   SYMBOL    NUMBER   ---       DBGBOE
      000000E6H   SYMBOL    NUMBER   ---       DBGCOE
      000000E9H   SYMBOL    NUMBER   ---       DBGDOE
      000000EEH   SYMBOL    NUMBER   ---       DBGMODE
      000000DBH   SYMBOL    NUMBER   ---       DBGSEL
      000000ECH   SYMBOL    NUMBER   ---       DDV_CTL0
      000000C1H   SYMBOL    NUMBER   ---       DISCARDLEN
      00000093H   SYMBOL    NUMBER   ---       DMA01234DBG
      00000094H   SYMBOL    NUMBER   ---       DMA0CTL0
      00000095H   SYMBOL    NUMBER   ---       DMA0CTL1
      0000009DH   SYMBOL    NUMBER   ---       DMA0DADDR0H
      0000009EH   SYMBOL    NUMBER   ---       DMA0DADDR0L
      0000009FH   SYMBOL    NUMBER   ---       DMA0DADDR0M
      000000A2H   SYMBOL    NUMBER   ---       DMA0DADDR1H
      000000A3H   SYMBOL    NUMBER   ---       DMA0DADDR1L
      000000A6H   SYMBOL    NUMBER   ---       DMA0DADDR1M
      000000A4H   SYMBOL    NUMBER   ---       DMA0FRAMELENH
      000000A5H   SYMBOL    NUMBER   ---       DMA0FRAMELENL
      00000092H   SYMBOL    NUMBER   ---       DMA0IE
      00000091H   SYMBOL    NUMBER   ---       DMA0IP
      00000097H   SYMBOL    NUMBER   ---       DMA0SADDR0H
L251 LINKER/LOCATER V4.25                                                             12/13/2018  16:28:37  PAGE 66


      00000098H   SYMBOL    NUMBER   ---       DMA0SADDR0L
      0000009BH   SYMBOL    NUMBER   ---       DMA0SADDR0M
      00000099H   SYMBOL    NUMBER   ---       DMA0SADDR1H
      0000009AH   SYMBOL    NUMBER   ---       DMA0SADDR1L
      0000009CH   SYMBOL    NUMBER   ---       DMA0SADDR1M
      00000094H   SYMBOL    NUMBER   ---       DMA1CTL0
      00000095H   SYMBOL    NUMBER   ---       DMA1CTL1
      0000009DH   SYMBOL    NUMBER   ---       DMA1DADDR0H
      0000009EH   SYMBOL    NUMBER   ---       DMA1DADDR0L
      0000009FH   SYMBOL    NUMBER   ---       DMA1DADDR0M
      000000A2H   SYMBOL    NUMBER   ---       DMA1DADDR1H
      000000A3H   SYMBOL    NUMBER   ---       DMA1DADDR1L
      000000A6H   SYMBOL    NUMBER   ---       DMA1DADDR1M
      000000A4H   SYMBOL    NUMBER   ---       DMA1FRAMELENH
      000000A5H   SYMBOL    NUMBER   ---       DMA1FRAMELENL
      00000092H   SYMBOL    NUMBER   ---       DMA1IE
      00000091H   SYMBOL    NUMBER   ---       DMA1IP
      00000097H   SYMBOL    NUMBER   ---       DMA1SADDR0H
      00000098H   SYMBOL    NUMBER   ---       DMA1SADDR0L
      0000009BH   SYMBOL    NUMBER   ---       DMA1SADDR0M
      00000099H   SYMBOL    NUMBER   ---       DMA1SADDR1H
      0000009AH   SYMBOL    NUMBER   ---       DMA1SADDR1L
      0000009CH   SYMBOL    NUMBER   ---       DMA1SADDR1M
      00000094H   SYMBOL    NUMBER   ---       DMA2CTL0
      00000095H   SYMBOL    NUMBER   ---       DMA2CTL1
      0000009DH   SYMBOL    NUMBER   ---       DMA2DADDR0H
      0000009EH   SYMBOL    NUMBER   ---       DMA2DADDR0L
      0000009FH   SYMBOL    NUMBER   ---       DMA2DADDR0M
      000000A2H   SYMBOL    NUMBER   ---       DMA2DADDR1H
      000000A3H   SYMBOL    NUMBER   ---       DMA2DADDR1L
      000000A6H   SYMBOL    NUMBER   ---       DMA2DADDR1M
      000000A4H   SYMBOL    NUMBER   ---       DMA2FRAMELENH
      000000A5H   SYMBOL    NUMBER   ---       DMA2FRAMELENL
      00000092H   SYMBOL    NUMBER   ---       DMA2IE
      00000091H   SYMBOL    NUMBER   ---       DMA2IP
      00000097H   SYMBOL    NUMBER   ---       DMA2SADDR0H
      00000098H   SYMBOL    NUMBER   ---       DMA2SADDR0L
      0000009BH   SYMBOL    NUMBER   ---       DMA2SADDR0M
      00000099H   SYMBOL    NUMBER   ---       DMA2SADDR1H
      0000009AH   SYMBOL    NUMBER   ---       DMA2SADDR1L
      0000009CH   SYMBOL    NUMBER   ---       DMA2SADDR1M
      00000094H   SYMBOL    NUMBER   ---       DMA3CTL0
      00000095H   SYMBOL    NUMBER   ---       DMA3CTL1
      0000009DH   SYMBOL    NUMBER   ---       DMA3DADDR0H
      0000009EH   SYMBOL    NUMBER   ---       DMA3DADDR0L
      0000009FH   SYMBOL    NUMBER   ---       DMA3DADDR0M
      000000A2H   SYMBOL    NUMBER   ---       DMA3DADDR1H
      000000A3H   SYMBOL    NUMBER   ---       DMA3DADDR1L
      000000A6H   SYMBOL    NUMBER   ---       DMA3DADDR1M
      000000A4H   SYMBOL    NUMBER   ---       DMA3FRAMELENH
      000000A5H   SYMBOL    NUMBER   ---       DMA3FRAMELENL
      00000092H   SYMBOL    NUMBER   ---       DMA3IE
      00000091H   SYMBOL    NUMBER   ---       DMA3IP
      00000097H   SYMBOL    NUMBER   ---       DMA3SADDR0H
      00000098H   SYMBOL    NUMBER   ---       DMA3SADDR0L
      0000009BH   SYMBOL    NUMBER   ---       DMA3SADDR0M
      00000099H   SYMBOL    NUMBER   ---       DMA3SADDR1H
      0000009AH   SYMBOL    NUMBER   ---       DMA3SADDR1L
      0000009CH   SYMBOL    NUMBER   ---       DMA3SADDR1M
      00000094H   SYMBOL    NUMBER   ---       DMA4CTL0
      00000095H   SYMBOL    NUMBER   ---       DMA4CTL1
      0000009DH   SYMBOL    NUMBER   ---       DMA4DADDR0H
      0000009EH   SYMBOL    NUMBER   ---       DMA4DADDR0L
      0000009FH   SYMBOL    NUMBER   ---       DMA4DADDR0M
      000000A2H   SYMBOL    NUMBER   ---       DMA4DADDR1H
L251 LINKER/LOCATER V4.25                                                             12/13/2018  16:28:37  PAGE 67


      000000A3H   SYMBOL    NUMBER   ---       DMA4DADDR1L
      000000A6H   SYMBOL    NUMBER   ---       DMA4DADDR1M
      000000A4H   SYMBOL    NUMBER   ---       DMA4FRAMELENH
      000000A5H   SYMBOL    NUMBER   ---       DMA4FRAMELENL
      00000092H   SYMBOL    NUMBER   ---       DMA4IE
      00000091H   SYMBOL    NUMBER   ---       DMA4IP
      00000097H   SYMBOL    NUMBER   ---       DMA4SADDR0H
      00000098H   SYMBOL    NUMBER   ---       DMA4SADDR0L
      0000009BH   SYMBOL    NUMBER   ---       DMA4SADDR0M
      00000099H   SYMBOL    NUMBER   ---       DMA4SADDR1H
      0000009AH   SYMBOL    NUMBER   ---       DMA4SADDR1L
      0000009CH   SYMBOL    NUMBER   ---       DMA4SADDR1M
      00000094H   SYMBOL    NUMBER   ---       DMANCTL0
      00000095H   SYMBOL    NUMBER   ---       DMANCTL1
      0000009DH   SYMBOL    NUMBER   ---       DMANDADDR0H
      0000009EH   SYMBOL    NUMBER   ---       DMANDADDR0L
      0000009FH   SYMBOL    NUMBER   ---       DMANDADDR0M
      000000A2H   SYMBOL    NUMBER   ---       DMANDADDR1H
      000000A3H   SYMBOL    NUMBER   ---       DMANDADDR1L
      000000A6H   SYMBOL    NUMBER   ---       DMANDADDR1M
      000000A4H   SYMBOL    NUMBER   ---       DMANFRAMELENH
      000000A5H   SYMBOL    NUMBER   ---       DMANFRAMELENL
      00000092H   SYMBOL    NUMBER   ---       DMANIE
      00000091H   SYMBOL    NUMBER   ---       DMANIP
      00000097H   SYMBOL    NUMBER   ---       DMANSADDR0H
      00000098H   SYMBOL    NUMBER   ---       DMANSADDR0L
      0000009BH   SYMBOL    NUMBER   ---       DMANSADDR0M
      00000099H   SYMBOL    NUMBER   ---       DMANSADDR1H
      0000009AH   SYMBOL    NUMBER   ---       DMANSADDR1L
      0000009CH   SYMBOL    NUMBER   ---       DMANSADDR1M
      00000094H   SYMBOL    NUMBER   ---       DPDMCTRL
      00000083H   SYMBOL    NUMBER   ---       DPH
      00000082H   SYMBOL    NUMBER   ---       DPL
      00000084H   SYMBOL    NUMBER   ---       DPXL
      00000547H   SYMBOL    BIT      ---       EA
      000000A4H   SYMBOL    NUMBER   ---       EFUSE0
      000000A5H   SYMBOL    NUMBER   ---       EFUSE1
      000000A6H   SYMBOL    NUMBER   ---       EFUSE2
      000000A7H   SYMBOL    NUMBER   ---       EFUSE3
      000000A3H   SYMBOL    NUMBER   ---       EFUSE_CTL
      000000C6H   SYMBOL    NUMBER   ---       EP03IEN
      000000C5H   SYMBOL    NUMBER   ---       EP03IRQ
      000000C8H   SYMBOL    NUMBER   ---       EP03TOKIEN
      000000C7H   SYMBOL    NUMBER   ---       EP03TOKIRQ
      00000099H   SYMBOL    NUMBER   ---       EP0CS_HCEP0CS
      000000ABH   SYMBOL    NUMBER   ---       EP0INDATA
      000000ACH   SYMBOL    NUMBER   ---       EP0OUTDATA
      0000008CH   SYMBOL    NUMBER   ---       EP1DMALENH
      0000008DH   SYMBOL    NUMBER   ---       EP1DMALENL
      0000008AH   SYMBOL    NUMBER   ---       EP1STADDRH
      0000008BH   SYMBOL    NUMBER   ---       EP1STADDRL
      000000E2H   SYMBOL    NUMBER   ---       EP2DMALENH
      000000E3H   SYMBOL    NUMBER   ---       EP2DMALENL
      000000B7H   SYMBOL    NUMBER   ---       EP2STADDRH
      000000B8H   SYMBOL    NUMBER   ---       EP2STADDRL
      000000CAH   SYMBOL    NUMBER   ---       EPRST
      000000D8H   SYMBOL    NUMBER   ---       EXTINT
      0000009EH   SYMBOL    NUMBER   ---       EXTMEM_CTL
      000000FEH   SYMBOL    NUMBER   ---       EXTMEM_DH
      000000FFH   SYMBOL    NUMBER   ---       EXTMEM_DL
      0000009FH   SYMBOL    NUMBER   ---       EXTMEM_WT
      00000096H   SYMBOL    NUMBER   ---       EXWAIT
      00000685H   SYMBOL    BIT      ---       F0
      000000A7H   SYMBOL    NUMBER   ---       FIFO1DAT
      000000A9H   SYMBOL    NUMBER   ---       FIFO2DAT
L251 LINKER/LOCATER V4.25                                                             12/13/2018  16:28:37  PAGE 68


      000000AAH   SYMBOL    NUMBER   ---       FIFO3DAT
      000000D2H   SYMBOL    NUMBER   ---       FIFOCTRL
      000000D3H   SYMBOL    NUMBER   ---       FIXADDR0H
      000000BAH   SYMBOL    NUMBER   ---       FIXADDR0L
      000000B9H   SYMBOL    NUMBER   ---       FIXADDR0M
      000000BBH   SYMBOL    NUMBER   ---       FIXADDR1H
      000000BDH   SYMBOL    NUMBER   ---       FIXADDR1L
      000000BCH   SYMBOL    NUMBER   ---       FIXADDR1M
      000000C2H   SYMBOL    NUMBER   ---       FIXADDR2H
      000000C4H   SYMBOL    NUMBER   ---       FIXADDR2L
      000000C3H   SYMBOL    NUMBER   ---       FIXADDR2M
      000000C5H   SYMBOL    NUMBER   ---       FIXADDR3H
      000000C7H   SYMBOL    NUMBER   ---       FIXADDR3L
      000000C6H   SYMBOL    NUMBER   ---       FIXADDR3M
      000000C8H   SYMBOL    NUMBER   ---       FMCLKCTL
      000000CEH   SYMBOL    NUMBER   ---       FNADDR
      000000B9H   SYMBOL    NUMBER   ---       FRAMELEN0
      000000B8H   SYMBOL    NUMBER   ---       FRAMELEN1
      000000CCH   SYMBOL    NUMBER   ---       FRMCNTH
      000000CDH   SYMBOL    NUMBER   ---       FRMCNTL
      000000FCH   SYMBOL    NUMBER   ---       FSMPRESTATE
      000000A2H   SYMBOL    NUMBER   ---       FS_CTL
      000000C7H   SYMBOL    NUMBER   ---       GLOBALGAINH
      000000C9H   SYMBOL    NUMBER   ---       GLOBALGAINL
      000000C8H   SYMBOL    NUMBER   ---       GLOBALGAINM
      000000A4H   SYMBOL    NUMBER   ---       GPIOADAT
      000000A3H   SYMBOL    NUMBER   ---       GPIOAINEN
      000000A2H   SYMBOL    NUMBER   ---       GPIOAOUTEN
      000000A6H   SYMBOL    NUMBER   ---       GPIOAPDEN
      000000A5H   SYMBOL    NUMBER   ---       GPIOAPUEN
      000000AAH   SYMBOL    NUMBER   ---       GPIOBDAT
      000000A9H   SYMBOL    NUMBER   ---       GPIOBINEN
      000000A7H   SYMBOL    NUMBER   ---       GPIOBOUTEN
      000000ACH   SYMBOL    NUMBER   ---       GPIOBPDEN
      000000ABH   SYMBOL    NUMBER   ---       GPIOBPUEN
      000000AFH   SYMBOL    NUMBER   ---       GPIOCDAT
      000000AEH   SYMBOL    NUMBER   ---       GPIOCINEN
      000000ADH   SYMBOL    NUMBER   ---       GPIOCOUTEN
      000000B1H   SYMBOL    NUMBER   ---       GPIOCPDEN
      000000B0H   SYMBOL    NUMBER   ---       GPIOCPUEN
      000000B4H   SYMBOL    NUMBER   ---       GPIODDAT
      000000B3H   SYMBOL    NUMBER   ---       GPIODINEN
      000000B2H   SYMBOL    NUMBER   ---       GPIODOUTEN
      000000B6H   SYMBOL    NUMBER   ---       GPIODPDEN
      000000B5H   SYMBOL    NUMBER   ---       GPIODPUEN
      000000B9H   SYMBOL    NUMBER   ---       GPIOEDAT
      000000B8H   SYMBOL    NUMBER   ---       GPIOEINEN
      000000B7H   SYMBOL    NUMBER   ---       GPIOEOUTEN
      000000BBH   SYMBOL    NUMBER   ---       GPIOEPDEN
      000000BAH   SYMBOL    NUMBER   ---       GPIOEPUEN
      000000BFH   SYMBOL    NUMBER   ---       GPIOFDAT
      000000BDH   SYMBOL    NUMBER   ---       GPIOFINEN
      000000BCH   SYMBOL    NUMBER   ---       GPIOFOUTEN
      000000C2H   SYMBOL    NUMBER   ---       GPIOFPDEN
      000000C1H   SYMBOL    NUMBER   ---       GPIOFPUEN
      000000C5H   SYMBOL    NUMBER   ---       GPIOGDAT
      000000C4H   SYMBOL    NUMBER   ---       GPIOGINEN
      000000C3H   SYMBOL    NUMBER   ---       GPIOGOUTEN
      000000C7H   SYMBOL    NUMBER   ---       GPIOGPDEN
      000000C6H   SYMBOL    NUMBER   ---       GPIOGPUEN
      000000D9H   SYMBOL    NUMBER   ---       HCEP03ERRIEN
      000000D8H   SYMBOL    NUMBER   ---       HCEP03ERRIRQ
      000000B0H   SYMBOL    NUMBER   ---       HCEP0CTRL
      000000D4H   SYMBOL    NUMBER   ---       HCFRMNH
      000000D5H   SYMBOL    NUMBER   ---       HCFRMNL
L251 LINKER/LOCATER V4.25                                                             12/13/2018  16:28:37  PAGE 69


      000000D6H   SYMBOL    NUMBER   ---       HCFRMREMAINH
      000000D7H   SYMBOL    NUMBER   ---       HCFRMREMAINL
      000000B2H   SYMBOL    NUMBER   ---       HCIN0ERR
      000000E4H   SYMBOL    NUMBER   ---       HCIN0MAXPCK
      000000FDH   SYMBOL    NUMBER   ---       HCIN2CNTH
      000000FEH   SYMBOL    NUMBER   ---       HCIN2CNTL
      000000B5H   SYMBOL    NUMBER   ---       HCIN2CTRL
      000000B6H   SYMBOL    NUMBER   ---       HCIN2ERR
      000000E5H   SYMBOL    NUMBER   ---       HCIN2MAXPCKH
      000000E6H   SYMBOL    NUMBER   ---       HCIN2MAXPCKL
      000000EDH   SYMBOL    NUMBER   ---       HCINCTRL
      000000B8H   SYMBOL    NUMBER   ---       HCL_CLK_CTL
      000000B5H   SYMBOL    NUMBER   ---       HCL_INTERVAL_CTL
      000000B1H   SYMBOL    NUMBER   ---       HCOUT0ERR
      000000B3H   SYMBOL    NUMBER   ---       HCOUT1CTRL
      000000B4H   SYMBOL    NUMBER   ---       HCOUT1ERR
      000000E9H   SYMBOL    NUMBER   ---       HCOUT1MAXPCKH
      000000EAH   SYMBOL    NUMBER   ---       HCOUT1MAXPCKL
      000000B9H   SYMBOL    NUMBER   ---       HCOUT3CTRL
      000000BAH   SYMBOL    NUMBER   ---       HCOUT3ERR
      000000E7H   SYMBOL    NUMBER   ---       HCOUT3MAXPCK
      000000D3H   SYMBOL    NUMBER   ---       HCPORTCTRL
      000000B6H   SYMBOL    NUMBER   ---       HOSC_CTL
      000000CFH   SYMBOL    NUMBER   ---       HPFGAIN
      000000E2H   SYMBOL    NUMBER   ---       I2S_CTL0
      000000E3H   SYMBOL    NUMBER   ---       I2S_CTL1
      00000092H   SYMBOL    NUMBER   ---       IDVBUSCTRL
      000000A8H   SYMBOL    NUMBER   ---       IE0
      00000088H   SYMBOL    NUMBER   ---       IF0
      000000F5H   SYMBOL    NUMBER   ---       IFDEBUG0
      000000F6H   SYMBOL    NUMBER   ---       IFDEBUG1
      00000098H   SYMBOL    NUMBER   ---       IN0BC_HCOUT0BC
      0000009AH   SYMBOL    NUMBER   ---       IN1BCH_HCOUT1BCH
      0000009BH   SYMBOL    NUMBER   ---       IN1BCL_HCOUT1BCL
      0000009DH   SYMBOL    NUMBER   ---       IN1CS_HCOUT1CS
      0000009CH   SYMBOL    NUMBER   ---       IN1CTRL_HCOUT1CTRL
      000000A4H   SYMBOL    NUMBER   ---       IN3BC_HCOUT3BC
      000000A6H   SYMBOL    NUMBER   ---       IN3CS_HCOUT3CS
      000000A5H   SYMBOL    NUMBER   ---       IN3CTRL_HCOUT3CTRL
      000000B7H   SYMBOL    NUMBER   ---       IPH0
      000000B8H   SYMBOL    NUMBER   ---       IPL0
      000000A5H   SYMBOL    NUMBER   ---       IR_CTL
      000000A9H   SYMBOL    NUMBER   ---       IR_HUC
      000000AAH   SYMBOL    NUMBER   ---       IR_KDC
      000000A7H   SYMBOL    NUMBER   ---       IR_LUC
      000000A6H   SYMBOL    NUMBER   ---       IR_STA
      000000C9H   SYMBOL    NUMBER   ---       IVECT
      000000CBH   SYMBOL    NUMBER   ---       KARAOKECTL
      0000008BH   SYMBOL    NUMBER   ---       LCD_DATA0
      0000008CH   SYMBOL    NUMBER   ---       LCD_DATA1
      00000098H   SYMBOL    NUMBER   ---       LCD_DATA10
      00000099H   SYMBOL    NUMBER   ---       LCD_DATA11
      0000009AH   SYMBOL    NUMBER   ---       LCD_DATA12
      0000009BH   SYMBOL    NUMBER   ---       LCD_DATA13
      0000009CH   SYMBOL    NUMBER   ---       LCD_DATA14
      0000009DH   SYMBOL    NUMBER   ---       LCD_DATA15
      0000008DH   SYMBOL    NUMBER   ---       LCD_DATA2
      00000090H   SYMBOL    NUMBER   ---       LCD_DATA3
      00000091H   SYMBOL    NUMBER   ---       LCD_DATA4
      00000092H   SYMBOL    NUMBER   ---       LCD_DATA5
      00000093H   SYMBOL    NUMBER   ---       LCD_DATA6
      00000094H   SYMBOL    NUMBER   ---       LCD_DATA7
      00000095H   SYMBOL    NUMBER   ---       LCD_DATA8
      00000097H   SYMBOL    NUMBER   ---       LCD_DATA9
      0000008AH   SYMBOL    NUMBER   ---       LCD_MODE
L251 LINKER/LOCATER V4.25                                                             12/13/2018  16:28:37  PAGE 70


      000000CCH   SYMBOL    NUMBER   ---       LCHGAIN
      0000008AH   SYMBOL    NUMBER   ---       LDOPD_CTL
      000000C9H   SYMBOL    NUMBER   ---       LED_SEGLCDCLKCTL
      000000ECH   SYMBOL    NUMBER   ---       LED_SEG_BIAS_EN
      000000EBH   SYMBOL    NUMBER   ---       LED_SEG_RC_EN
      000000B7H   SYMBOL    NUMBER   ---       LOSC_CTL
      000000CEH   SYMBOL    NUMBER   ---       LPFGAIN
      00000092H   SYMBOL    NUMBER   ---       LRADC1_DATA
      00000093H   SYMBOL    NUMBER   ---       LRADC3_DATA
      00000094H   SYMBOL    NUMBER   ---       LRADC4_DATA
      00000095H   SYMBOL    NUMBER   ---       LRADC5_DATA
      000000B3H   SYMBOL    NUMBER   ---       MCU_PLL_CTL
      000000BCH   SYMBOL    NUMBER   ---       MCU_PLL_DEBUG_CTL
      000000BAH   SYMBOL    NUMBER   ---       MCU_PLL_SSC_CTL
      000000BBH   SYMBOL    NUMBER   ---       MCU_PLL_SSC_FSTEP
      000000F9H   SYMBOL    NUMBER   ---       MEMBANKCTL
      000000B4H   SYMBOL    NUMBER   ---       MEMCLKENCTL0
      000000ADH   SYMBOL    NUMBER   ---       MEMCLKSELCTL0
      000000AEH   SYMBOL    NUMBER   ---       MEMCLKSELCTL1
      000000C8H   SYMBOL    NUMBER   ---       MFP_CTL0
      000000C9H   SYMBOL    NUMBER   ---       MFP_CTL1
      000000CAH   SYMBOL    NUMBER   ---       MFP_CTL2
      000000CBH   SYMBOL    NUMBER   ---       MFP_CTL3
      000000CCH   SYMBOL    NUMBER   ---       MFP_CTL4
      000000CDH   SYMBOL    NUMBER   ---       MFP_CTL5
      000000CEH   SYMBOL    NUMBER   ---       MFP_CTL6
      000000CFH   SYMBOL    NUMBER   ---       MFP_CTL7
      000000D2H   SYMBOL    NUMBER   ---       MFP_CTL8
      000000ADH   SYMBOL    NUMBER   ---       MP3BITRATEH
      000000AEH   SYMBOL    NUMBER   ---       MP3BITRATEL
      000000B2H   SYMBOL    NUMBER   ---       MP3CTIMEH
      000000B3H   SYMBOL    NUMBER   ---       MP3CTIMEM
      000000B4H   SYMBOL    NUMBER   ---       MP3CTIMES
      000000ABH   SYMBOL    NUMBER   ---       MP3CTL
      000000ABH   SYMBOL    NUMBER   ---       MP3ENCCTL
      000000ACH   SYMBOL    NUMBER   ---       MP3ENCINFO
      000000BAH   SYMBOL    NUMBER   ---       MP3FILELEN1
      000000B9H   SYMBOL    NUMBER   ---       MP3FILELEN2
      000000B8H   SYMBOL    NUMBER   ---       MP3FILELEN3
      000000B5H   SYMBOL    NUMBER   ---       MP3FRAMENUMH
      000000B7H   SYMBOL    NUMBER   ---       MP3FRAMENUML
      000000B6H   SYMBOL    NUMBER   ---       MP3FRAMENUMM
      000000ACH   SYMBOL    NUMBER   ---       MP3HEADERINFO
      000000BBH   SYMBOL    NUMBER   ---       MP3HEADERSYNCTL
      000000A9H   SYMBOL    NUMBER   ---       MP3IE
      000000AAH   SYMBOL    NUMBER   ---       MP3IP
      000000AFH   SYMBOL    NUMBER   ---       MP3TTIMEH
      000000B0H   SYMBOL    NUMBER   ---       MP3TTIMEM
      000000B1H   SYMBOL    NUMBER   ---       MP3TTIMES
      000000A1H   SYMBOL    NUMBER   ---       MPAGE
      00000086H   SYMBOL    NUMBER   ---       MRCR1
      00000089H   SYMBOL    NUMBER   ---       MRCR2
      0000009FH   SYMBOL    NUMBER   ---       MRCR3
      0000008DH   SYMBOL    NUMBER   ---       MULTI_USED
      000000DCH   SYMBOL    NUMBER   ---       OTGCTRL
      000000DEH   SYMBOL    NUMBER   ---       OTGIEN
      000000DAH   SYMBOL    NUMBER   ---       OTGIRQ
      000000DBH   SYMBOL    NUMBER   ---       OTGSTATE
      000000DDH   SYMBOL    NUMBER   ---       OTGSTATUS
      000000F5H   SYMBOL    NUMBER   ---       OTGTRIEN
      000000F6H   SYMBOL    NUMBER   ---       OTGTRIRQ
      00000097H   SYMBOL    NUMBER   ---       OUT0BC_HCIN0BC
      0000009EH   SYMBOL    NUMBER   ---       OUT2BCH_HCIN2BCH
      0000009FH   SYMBOL    NUMBER   ---       OUT2BCL_HCIN2BCL
      000000A3H   SYMBOL    NUMBER   ---       OUT2CS_HCIN2CS
L251 LINKER/LOCATER V4.25                                                             12/13/2018  16:28:37  PAGE 71


      000000A2H   SYMBOL    NUMBER   ---       OUT2CTRL_HCIN2CTRL
      00000090H   SYMBOL    NUMBER   ---       OUTPCKCNTH
      00000091H   SYMBOL    NUMBER   ---       OUTPCKCNTL
      00000682H   SYMBOL    BIT      ---       OV
      00000680H   SYMBOL    BIT      ---       P
      000000A0H   SYMBOL    NUMBER   ---       P2
      000000D5H   SYMBOL    NUMBER   ---       PADDRV0
      000000D6H   SYMBOL    NUMBER   ---       PADDRV1
      000000D7H   SYMBOL    NUMBER   ---       PADDRV2
      000000D9H   SYMBOL    NUMBER   ---       PADDRV3
      000000DAH   SYMBOL    NUMBER   ---       PADDRV4
      000000D4H   SYMBOL    NUMBER   ---       PADPUPD
      00000090H   SYMBOL    NUMBER   ---       PAGEADDR0H
      00000091H   SYMBOL    NUMBER   ---       PAGEADDR0L
      00000092H   SYMBOL    NUMBER   ---       PAGEADDR1H
      00000093H   SYMBOL    NUMBER   ---       PAGEADDR1L
      00000094H   SYMBOL    NUMBER   ---       PAGEADDR2H
      00000095H   SYMBOL    NUMBER   ---       PAGEADDR2L
      00000098H   SYMBOL    NUMBER   ---       PAGEADDR3H
      00000099H   SYMBOL    NUMBER   ---       PAGEADDR3L
      0000009AH   SYMBOL    NUMBER   ---       PAGEADDR4H
      0000009BH   SYMBOL    NUMBER   ---       PAGEADDR4L
      0000009CH   SYMBOL    NUMBER   ---       PAGEADDR5H
      0000009DH   SYMBOL    NUMBER   ---       PAGEADDR5L
      0000009EH   SYMBOL    NUMBER   ---       PAGEADDR6H
      0000009FH   SYMBOL    NUMBER   ---       PAGEADDR6L
      000000A2H   SYMBOL    NUMBER   ---       PAGEADDR7H
      000000A3H   SYMBOL    NUMBER   ---       PAGEADDR7L
      000000D8H   SYMBOL    NUMBER   ---       PAGEADDR8H
      000000D9H   SYMBOL    NUMBER   ---       PAGEADDR8L
      000000DAH   SYMBOL    NUMBER   ---       PAGEADDR9H
      000000DBH   SYMBOL    NUMBER   ---       PAGEADDR9L
      000000B0H   SYMBOL    NUMBER   ---       PAGEADDRMASK0
      000000B1H   SYMBOL    NUMBER   ---       PAGEADDRMASK1
      000000B2H   SYMBOL    NUMBER   ---       PAGEADDRMASK2
      000000B3H   SYMBOL    NUMBER   ---       PAGEADDRMASK3
      000000B4H   SYMBOL    NUMBER   ---       PAGEADDRMASK4
      000000B5H   SYMBOL    NUMBER   ---       PAGEADDRMASK5
      000000B6H   SYMBOL    NUMBER   ---       PAGEADDRMASK6
      000000D2H   SYMBOL    NUMBER   ---       PAGEADDRMASK7
      000000D4H   SYMBOL    NUMBER   ---       PAGEADDRMASK8
      000000D5H   SYMBOL    NUMBER   ---       PAGEADDRMASK9
      000000F4H   SYMBOL    NUMBER   ---       PAGEMISSENTRYEX
      000000F5H   SYMBOL    NUMBER   ---       PAGEMISSENTRYH
      000000F6H   SYMBOL    NUMBER   ---       PAGEMISSENTRYL
      000000EBH   SYMBOL    NUMBER   ---       PA_APCTL
      000000EAH   SYMBOL    NUMBER   ---       PA_CTL
      000000E9H   SYMBOL    NUMBER   ---       PA_VOLUME
      00000087H   SYMBOL    NUMBER   ---       PCON
      000000BDH   SYMBOL    NUMBER   ---       PHYSICALADDRH
      000000BFH   SYMBOL    NUMBER   ---       PHYSICALADDRL
      00000090H   SYMBOL    NUMBER   ---       PMUADC_CTL
      000000D0H   SYMBOL    NUMBER   ---       PSW
      000000D1H   SYMBOL    NUMBER   ---       PSW1
      000000C3H   SYMBOL    NUMBER   ---       PWMCLKCTL
      000000AFH   SYMBOL    NUMBER   ---       PWMDUTY
      000000CDH   SYMBOL    NUMBER   ---       RCHGAIN
      000000C8H   SYMBOL    NUMBER   ---       REDIRECTADDR0
      000000C9H   SYMBOL    NUMBER   ---       REDIRECTADDR1
      000000CAH   SYMBOL    NUMBER   ---       REDIRECTADDR2
      000000CBH   SYMBOL    NUMBER   ---       REDIRECTADDR3
      000000CCH   SYMBOL    NUMBER   ---       REDIRECTADDR4
      000000CDH   SYMBOL    NUMBER   ---       REDIRECTADDR5
      000000CEH   SYMBOL    NUMBER   ---       REDIRECTADDR6
      000000CFH   SYMBOL    NUMBER   ---       REDIRECTADDR7
L251 LINKER/LOCATER V4.25                                                             12/13/2018  16:28:37  PAGE 72


      000000D6H   SYMBOL    NUMBER   ---       REDIRECTADDR8
      000000D7H   SYMBOL    NUMBER   ---       REDIRECTADDR9
      00000683H   SYMBOL    BIT      ---       RS0
      00000684H   SYMBOL    BIT      ---       RS1
      000000B3H   SYMBOL    NUMBER   ---       RTCALMH
      000000B2H   SYMBOL    NUMBER   ---       RTCALMM
      000000B1H   SYMBOL    NUMBER   ---       RTCALMS
      000000BCH   SYMBOL    NUMBER   ---       RTCRDM0
      000000BDH   SYMBOL    NUMBER   ---       RTCRDM1
      000000C8H   SYMBOL    NUMBER   ---       RTCRDM10
      000000C9H   SYMBOL    NUMBER   ---       RTCRDM11
      000000CAH   SYMBOL    NUMBER   ---       RTCRDM12
      000000CBH   SYMBOL    NUMBER   ---       RTCRDM13
      000000CCH   SYMBOL    NUMBER   ---       RTCRDM14
      000000CDH   SYMBOL    NUMBER   ---       RTCRDM15
      000000CEH   SYMBOL    NUMBER   ---       RTCRDM16
      000000CFH   SYMBOL    NUMBER   ---       RTCRDM17
      000000D2H   SYMBOL    NUMBER   ---       RTCRDM18
      000000D3H   SYMBOL    NUMBER   ---       RTCRDM19
      000000BFH   SYMBOL    NUMBER   ---       RTCRDM2
      000000D4H   SYMBOL    NUMBER   ---       RTCRDM20
      000000D5H   SYMBOL    NUMBER   ---       RTCRDM21
      000000D6H   SYMBOL    NUMBER   ---       RTCRDM22
      000000C1H   SYMBOL    NUMBER   ---       RTCRDM3
      000000C2H   SYMBOL    NUMBER   ---       RTCRDM4
      000000C3H   SYMBOL    NUMBER   ---       RTCRDM5
      000000C4H   SYMBOL    NUMBER   ---       RTCRDM6
      000000C5H   SYMBOL    NUMBER   ---       RTCRDM7
      000000C6H   SYMBOL    NUMBER   ---       RTCRDM8
      000000C7H   SYMBOL    NUMBER   ---       RTCRDM9
      000000B4H   SYMBOL    NUMBER   ---       RTCRUPD
      000000AEH   SYMBOL    NUMBER   ---       RTCTIMED
      000000ADH   SYMBOL    NUMBER   ---       RTCTIMEH
      000000ACH   SYMBOL    NUMBER   ---       RTCTIMEMINT
      000000AFH   SYMBOL    NUMBER   ---       RTCTIMEMON
      000000ABH   SYMBOL    NUMBER   ---       RTCTIMES
      000000B0H   SYMBOL    NUMBER   ---       RTCTIMEY
      0000009DH   SYMBOL    NUMBER   ---       RTCVDD_RESERVED
      000000A9H   SYMBOL    NUMBER   ---       RTC_CTL0
      000000AAH   SYMBOL    NUMBER   ---       RTC_CTL1
      000000ACH   SYMBOL    NUMBER   ---       SDCLKCTL
      00000099H   SYMBOL    NUMBER   ---       SD_BLK_NUM
      00000097H   SYMBOL    NUMBER   ---       SD_BLK_SIZE_H
      00000098H   SYMBOL    NUMBER   ---       SD_BLK_SIZE_L
      0000009AH   SYMBOL    NUMBER   ---       SD_CLK_CTL
      00000090H   SYMBOL    NUMBER   ---       SD_CMD
      00000091H   SYMBOL    NUMBER   ---       SD_CMD_ARGRSP
      0000009DH   SYMBOL    NUMBER   ---       SD_DATA_FIFO
      000000AEH   SYMBOL    NUMBER   ---       SD_DBG_CTL
      0000009CH   SYMBOL    NUMBER   ---       SD_INT_CTL
      0000009BH   SYMBOL    NUMBER   ---       SD_PAD_CTL
      00000092H   SYMBOL    NUMBER   ---       SD_RSP_POIN
      00000094H   SYMBOL    NUMBER   ---       SD_STATE
      00000093H   SYMBOL    NUMBER   ---       SD_TF_CTL
      0000009EH   SYMBOL    NUMBER   ---       SD_TIMEOUT_CTL
      000000ADH   SYMBOL    NUMBER   ---       SD_TIMING_CTL
      000000BBH   SYMBOL    NUMBER   ---       SETUPDAT0
      000000BCH   SYMBOL    NUMBER   ---       SETUPDAT1
      000000BDH   SYMBOL    NUMBER   ---       SETUPDAT2
      000000BFH   SYMBOL    NUMBER   ---       SETUPDAT3
      000000C1H   SYMBOL    NUMBER   ---       SETUPDAT4
      000000C2H   SYMBOL    NUMBER   ---       SETUPDAT5
      000000C3H   SYMBOL    NUMBER   ---       SETUPDAT6
      000000C4H   SYMBOL    NUMBER   ---       SETUPDAT7
      00000080H   SYMBOL    NUMBER   ---       SFR_BANK
L251 LINKER/LOCATER V4.25                                                             12/13/2018  16:28:37  PAGE 73


      000000AFH   SYMBOL    NUMBER   ---       SHORTPCKIRQ
      000000ABH   SYMBOL    NUMBER   ---       SOFTCTL
      000000A9H   SYMBOL    NUMBER   ---       SOFTIE
      000000AAH   SYMBOL    NUMBER   ---       SOFTIP
      00000081H   SYMBOL    NUMBER   ---       SP
      000000B5H   SYMBOL    NUMBER   ---       SPDIFRX_CNT_WR0
      000000B6H   SYMBOL    NUMBER   ---       SPDIFRX_CNT_WR1
      000000B7H   SYMBOL    NUMBER   ---       SPDIFRX_CNT_WR2
      000000B2H   SYMBOL    NUMBER   ---       SPDIFRX_CSTAT
      000000B0H   SYMBOL    NUMBER   ---       SPDIFRX_CTL
      000000B4H   SYMBOL    NUMBER   ---       SPDIFRX_DAT
      000000B3H   SYMBOL    NUMBER   ---       SPDIFRX_DEBUG
      000000B1H   SYMBOL    NUMBER   ---       SPDIFRX_STAT
      000000BEH   SYMBOL    NUMBER   ---       SPH
      000000CAH   SYMBOL    NUMBER   ---       SPICLKCTL
      000000A2H   SYMBOL    NUMBER   ---       SPI_BCH
      0000009FH   SYMBOL    NUMBER   ---       SPI_BCL
      0000009CH   SYMBOL    NUMBER   ---       SPI_CLKDIV
      00000099H   SYMBOL    NUMBER   ---       SPI_CTL
      000000A3H   SYMBOL    NUMBER   ---       SPI_DEBUG
      0000009AH   SYMBOL    NUMBER   ---       SPI_DRQ
      000000C8H   SYMBOL    NUMBER   ---       SPI_RAND
      0000009EH   SYMBOL    NUMBER   ---       SPI_RXDAT
      000000C9H   SYMBOL    NUMBER   ---       SPI_SEED0
      000000CAH   SYMBOL    NUMBER   ---       SPI_SEED1
      0000009BH   SYMBOL    NUMBER   ---       SPI_STA
      0000009DH   SYMBOL    NUMBER   ---       SPI_TXDAT
      00000081H   SYMBOL    NUMBER   ---       SPL
      000000CCH   SYMBOL    NUMBER   ---       SRSCTL0
      000000CDH   SYMBOL    NUMBER   ---       SRSCTL1
      000000CEH   SYMBOL    NUMBER   ---       SRSCTL2
      000000BCH   SYMBOL    NUMBER   ---       SYNHEADERDATA1
      000000BDH   SYMBOL    NUMBER   ---       SYNHEADERDATA2
      0000009BH   SYMBOL    NUMBER   ---       SYSTEM_CTL
      0000009CH   SYMBOL    NUMBER   ---       SYSTEM_ONOFF
      000000FCH   SYMBOL    NUMBER   ---       TESTCOUNTERBYTE0
      000000FDH   SYMBOL    NUMBER   ---       TESTCOUNTERBYTE1
      000000FEH   SYMBOL    NUMBER   ---       TESTCOUNTERBYTE2
      000000FFH   SYMBOL    NUMBER   ---       TESTCOUNTERBYTE3
      000000F1H   SYMBOL    NUMBER   ---       TESTCOUNTERBYTE4
      0000009AH   SYMBOL    NUMBER   ---       TEST_CTL
      000000B7H   SYMBOL    NUMBER   ---       TIMERHB
      000000B5H   SYMBOL    NUMBER   ---       TIMERLB
      000000B6H   SYMBOL    NUMBER   ---       TIMERMB
      000000A2H   SYMBOL    NUMBER   ---       TK_AUTO_HIGHTH_H
      000000A3H   SYMBOL    NUMBER   ---       TK_AUTO_HIGHTH_L
      0000009DH   SYMBOL    NUMBER   ---       TK_AUTO_LOWTH_H
      0000009EH   SYMBOL    NUMBER   ---       TK_AUTO_LOWTH_L
      0000009AH   SYMBOL    NUMBER   ---       TK_BL_CAL_TH
      0000009CH   SYMBOL    NUMBER   ---       TK_BUCKET_TH
      00000094H   SYMBOL    NUMBER   ---       TK_DB_CTL
      000000DAH   SYMBOL    NUMBER   ---       TK_DEBUG
      00000090H   SYMBOL    NUMBER   ---       TK_EN_CTL
      00000091H   SYMBOL    NUMBER   ---       TK_FUN_CTL
      00000092H   SYMBOL    NUMBER   ---       TK_IRQ_PD
      000000CAH   SYMBOL    NUMBER   ---       TK_KEY0_BL_H
      000000CCH   SYMBOL    NUMBER   ---       TK_KEY0_BL_L
      000000AEH   SYMBOL    NUMBER   ---       TK_KEY0_DATH
      000000AFH   SYMBOL    NUMBER   ---       TK_KEY0_DATL
      000000A4H   SYMBOL    NUMBER   ---       TK_KEY0_IDA_CTL
      000000BCH   SYMBOL    NUMBER   ---       TK_KEY0_RAWH
      000000BDH   SYMBOL    NUMBER   ---       TK_KEY0_RAWL
      000000CDH   SYMBOL    NUMBER   ---       TK_KEY1_BL_H
      000000CEH   SYMBOL    NUMBER   ---       TK_KEY1_BL_L
      000000B0H   SYMBOL    NUMBER   ---       TK_KEY1_DATH
L251 LINKER/LOCATER V4.25                                                             12/13/2018  16:28:37  PAGE 74


      000000B1H   SYMBOL    NUMBER   ---       TK_KEY1_DATL
      000000A5H   SYMBOL    NUMBER   ---       TK_KEY1_IDA_CTL
      000000BFH   SYMBOL    NUMBER   ---       TK_KEY1_RAWH
      000000C1H   SYMBOL    NUMBER   ---       TK_KEY1_RAWL
      000000D2H   SYMBOL    NUMBER   ---       TK_KEY2_BL_H
      000000D3H   SYMBOL    NUMBER   ---       TK_KEY2_BL_L
      000000B2H   SYMBOL    NUMBER   ---       TK_KEY2_DATH
      000000B3H   SYMBOL    NUMBER   ---       TK_KEY2_DATL
      000000A6H   SYMBOL    NUMBER   ---       TK_KEY2_IDA_CTL
      000000C2H   SYMBOL    NUMBER   ---       TK_KEY2_RAWH
      000000C3H   SYMBOL    NUMBER   ---       TK_KEY2_RAWL
      000000D4H   SYMBOL    NUMBER   ---       TK_KEY3_BL_H
      000000D5H   SYMBOL    NUMBER   ---       TK_KEY3_BL_L
      000000B4H   SYMBOL    NUMBER   ---       TK_KEY3_DATH
      000000B5H   SYMBOL    NUMBER   ---       TK_KEY3_DATL
      000000A9H   SYMBOL    NUMBER   ---       TK_KEY3_IDA_CTL
      000000C4H   SYMBOL    NUMBER   ---       TK_KEY3_RAWH
      000000C5H   SYMBOL    NUMBER   ---       TK_KEY3_RAWL
      000000D6H   SYMBOL    NUMBER   ---       TK_KEY4_BL_H
      000000D7H   SYMBOL    NUMBER   ---       TK_KEY4_BL_L
      000000B6H   SYMBOL    NUMBER   ---       TK_KEY4_DATH
      000000B7H   SYMBOL    NUMBER   ---       TK_KEY4_DATL
      000000AAH   SYMBOL    NUMBER   ---       TK_KEY4_IDA_CTL
      000000C6H   SYMBOL    NUMBER   ---       TK_KEY4_RAWH
      000000C7H   SYMBOL    NUMBER   ---       TK_KEY4_RAWL
      000000D8H   SYMBOL    NUMBER   ---       TK_KEY5_BL_H
      000000D9H   SYMBOL    NUMBER   ---       TK_KEY5_BL_L
      000000B8H   SYMBOL    NUMBER   ---       TK_KEY5_DATH
      000000B9H   SYMBOL    NUMBER   ---       TK_KEY5_DATL
      000000ABH   SYMBOL    NUMBER   ---       TK_KEY5_IDA_CTL
      000000C8H   SYMBOL    NUMBER   ---       TK_KEY5_RAWH
      000000C9H   SYMBOL    NUMBER   ---       TK_KEY5_RAWL
      0000009BH   SYMBOL    NUMBER   ---       TK_NOISE_TH
      00000093H   SYMBOL    NUMBER   ---       TK_PRESS_STA
      00000099H   SYMBOL    NUMBER   ---       TK_PRESS_TH
      00000095H   SYMBOL    NUMBER   ---       TK_PWM_CNTH
      00000097H   SYMBOL    NUMBER   ---       TK_PWM_CNTL
      000000BAH   SYMBOL    NUMBER   ---       TK_RAW_PD
      000000ADH   SYMBOL    NUMBER   ---       TK_UPDAT_PD
      00000090H   SYMBOL    NUMBER   ---       UART_BR
      00000092H   SYMBOL    NUMBER   ---       UART_CTL
      00000098H   SYMBOL    NUMBER   ---       UART_DEBUG
      00000093H   SYMBOL    NUMBER   ---       UART_DRQ
      00000091H   SYMBOL    NUMBER   ---       UART_MODE
      00000097H   SYMBOL    NUMBER   ---       UART_RXDAT
      00000094H   SYMBOL    NUMBER   ---       UART_STA
      00000095H   SYMBOL    NUMBER   ---       UART_TXDAT
      00000681H   SYMBOL    BIT      ---       UD
      00000086H   SYMBOL    NUMBER   ---       UDMAM
      000000CBH   SYMBOL    NUMBER   ---       USBCTRL_STUS
      000000EBH   SYMBOL    NUMBER   ---       USBEIRQ
      000000AEH   SYMBOL    NUMBER   ---       USBIEN_HCUSBIEN
      000000ADH   SYMBOL    NUMBER   ---       USBIRQ_HCUSBIRQ
      00000093H   SYMBOL    NUMBER   ---       USBSTATUS
      000000F7H   SYMBOL    NUMBER   ---       USB_EFUSE_REF
      00000095H   SYMBOL    NUMBER   ---       USB_PHYCTRL
      000000EFH   SYMBOL    NUMBER   ---       VDCTRL
      00000099H   SYMBOL    NUMBER   ---       VDD_RESERVED
      000000F1H   SYMBOL    NUMBER   ---       VDSTAT
      000000BBH   SYMBOL    NUMBER   ---       VIRTUALADDRH
      000000BCH   SYMBOL    NUMBER   ---       VIRTUALADDRL
      00000089H   SYMBOL    NUMBER   ---       VOUT_CTL
      000000B5H   SYMBOL    NUMBER   ---       WAVBLOCKNUMH
      000000B7H   SYMBOL    NUMBER   ---       WAVBLOCKNUML
      000000B6H   SYMBOL    NUMBER   ---       WAVBLOCKNUMM
L251 LINKER/LOCATER V4.25                                                             12/13/2018  16:28:37  PAGE 75


      000000B2H   SYMBOL    NUMBER   ---       WAVCTIMEH
      000000B3H   SYMBOL    NUMBER   ---       WAVCTIMEM
      000000B4H   SYMBOL    NUMBER   ---       WAVCTIMES
      000000ABH   SYMBOL    NUMBER   ---       WAVCTL
      000000ABH   SYMBOL    NUMBER   ---       WAVENCCTL
      000000ACH   SYMBOL    NUMBER   ---       WAVENCINFO
      000000ACH   SYMBOL    NUMBER   ---       WAVHEADERINFO1
      000000ADH   SYMBOL    NUMBER   ---       WAVHEADERINFO2
      000000A9H   SYMBOL    NUMBER   ---       WAVIE
      000000AAH   SYMBOL    NUMBER   ---       WAVIP
      000000AFH   SYMBOL    NUMBER   ---       WAVTTIMEH
      000000B0H   SYMBOL    NUMBER   ---       WAVTTIMEM
      000000B1H   SYMBOL    NUMBER   ---       WAVTTIMES
      000000B8H   SYMBOL    NUMBER   ---       WDCTL
      000000ADH   SYMBOL    NUMBER   ---       WMABITRATEH
      000000AEH   SYMBOL    NUMBER   ---       WMABITRATEL
      000000B2H   SYMBOL    NUMBER   ---       WMACTIMEH
      000000B3H   SYMBOL    NUMBER   ---       WMACTIMEM
      000000B4H   SYMBOL    NUMBER   ---       WMACTIMES
      000000ABH   SYMBOL    NUMBER   ---       WMACTL
      000000ACH   SYMBOL    NUMBER   ---       WMAHEADERINFO
      000000A9H   SYMBOL    NUMBER   ---       WMAIE
      000000AAH   SYMBOL    NUMBER   ---       WMAIP
      000000B5H   SYMBOL    NUMBER   ---       WMAPACKNUMH
      000000B7H   SYMBOL    NUMBER   ---       WMAPACKNUML
      000000B6H   SYMBOL    NUMBER   ---       WMAPACKNUMM
      000000B8H   SYMBOL    NUMBER   ---       WMAPACKSIZEH
      000000BAH   SYMBOL    NUMBER   ---       WMAPACKSIZEL
      000000B9H   SYMBOL    NUMBER   ---       WMAPACKSIZEM
      000000AFH   SYMBOL    NUMBER   ---       WMATTIMEH
      000000B0H   SYMBOL    NUMBER   ---       WMATTIMEM
      000000B1H   SYMBOL    NUMBER   ---       WMATTIMES

      00FF0090H   BLOCK     ECODE    NEAR LAB  LVL=0
      00FF0090H   LINE      ECODE    ---       #284
      00FF0094H   LINE      ECODE    ---       #301
      00FF0098H   LINE      ECODE    ---       #311
      00FF009CH   LINE      ECODE    ---       #317
      00FF00A0H   LINE      ECODE    ---       #319
      00FF00A4H   LINE      ECODE    ---       #321
      00FF00A8H   LINE      ECODE    ---       #343
      00FF00ACH   LINE      ECODE    ---       #357
      00FF00B0H   LINE      ECODE    ---       #411
      00FF00B4H   LINE      ECODE    ---       #433
      00FF00B8H   LINE      ECODE    ---       #438
      ---         BLOCKEND  ---      ---       LVL=0

      ---         MODULE    ---      ---       libc
      00FFB828H   PUBLIC    ECODE    ---       ?C?BMOVENN
      00FFB823H   PUBLIC    ECODE    ---       ?C?BMOVENN8
      00FFBB17H   PUBLIC    ECODE    ---       ?C?BMOVENN8?
      00FFBB19H   PUBLIC    ECODE    ---       ?C?BMOVENN?
      00FFB83CH   PUBLIC    ECODE    ---       ?C?BMOVENP
      00FFB837H   PUBLIC    ECODE    ---       ?C?BMOVENP8
      00FFBB6BH   PUBLIC    ECODE    ---       ?C?BMOVENP8?
      00FFBB6DH   PUBLIC    ECODE    ---       ?C?BMOVENP?
      00FFB846H   PUBLIC    ECODE    ---       ?C?BMOVEPN
      00FFB841H   PUBLIC    ECODE    ---       ?C?BMOVEPN8
      00FFBB94H   PUBLIC    ECODE    ---       ?C?BMOVEPN8?
      00FFBB96H   PUBLIC    ECODE    ---       ?C?BMOVEPN?
      00FFB832H   PUBLIC    ECODE    ---       ?C?BMOVEPP
      00FFB82DH   PUBLIC    ECODE    ---       ?C?BMOVEPP8
      00FFBB38H   PUBLIC    ECODE    ---       ?C?BMOVEPP8?
      00FFBB3AH   PUBLIC    ECODE    ---       ?C?BMOVEPP?
      00FFB81EH   PUBLIC    ECODE    ---       ?C?LIMUL
L251 LINKER/LOCATER V4.25                                                             12/13/2018  16:28:37  PAGE 76


      00FFBBD2H   PUBLIC    ECODE    ---       ?C?LIMUL?
      00FFB805H   PUBLIC    ECODE    ---       ?C?LMUL
      00FFBBC1H   PUBLIC    ECODE    ---       ?C?LMUL?
      00FFB819H   PUBLIC    ECODE    ---       ?C?SCDIV
      00FFBAF5H   PUBLIC    ECODE    ---       ?C?SCDIV?
      00FFB800H   PUBLIC    ECODE    ---       ?C?SIDIV
      00FFBA3AH   PUBLIC    ECODE    ---       ?C?SIDIV?
      00FFB814H   PUBLIC    ECODE    ---       ?C?SLDIV
      00FFBABFH   PUBLIC    ECODE    ---       ?C?SLDIV?
      00FFB80FH   PUBLIC    ECODE    ---       ?C?ULDIV
      00FFBA6EH   PUBLIC    ECODE    ---       ?C?ULDIV?
      00FFB80AH   PUBLIC    ECODE    ---       ?C?ULIDIV
      00FFBA6CH   PUBLIC    ECODE    ---       ?C?ULIDIV?
      00FFBBDBH   PUBLIC    ECODE    ---       ITOA1??
      00FFBBEDH   PUBLIC    ECODE    ---       ITOA2??
      00FFBBFFH   PUBLIC    ECODE    ---       ITOA3??
      00FFBC10H   PUBLIC    ECODE    ---       ITOA4??
      00FFB903H   PUBLIC    ECODE    ---       MEMCHR??
      00FFB84BH   PUBLIC    ECODE    ---       MEMCMP??
      00FFB8DEH   PUBLIC    ECODE    ---       MEMCPY??
      00FFB883H   PUBLIC    ECODE    ---       MEMMOVE??
      00FFB871H   PUBLIC    ECODE    ---       MEMSET??
      00FFC0E6H   PUBLIC    NUMBER   ---       PRINTD??
      00FFC0E3H   PUBLIC    NUMBER   ---       PRINTH??
      00FFC0E0H   PUBLIC    NUMBER   ---       PRINTS??
      00FFB947H   PUBLIC    ECODE    ---       STRCAT??
      00FFB939H   PUBLIC    ECODE    ---       STRCMP??
      00FFB91AH   PUBLIC    ECODE    ---       STRCPY??
      00FFB9B2H   PUBLIC    ECODE    ---       STRLEN??
      00FFB967H   PUBLIC    ECODE    ---       STRNCAT??
      00FFB9EBH   PUBLIC    ECODE    ---       STRNCMP??
      00FFB9C2H   PUBLIC    ECODE    ---       STRNCPY??
      00FFBA1AH   PUBLIC    ECODE    ---       STRRCHR??
      00FFC0E9H   PUBLIC    NUMBER   ---       UPRINTF??
      00000686H   SYMBOL    BIT      ---       AC
      000000E0H   SYMBOL    NUMBER   ---       ACC
      000000F7H   SYMBOL    NUMBER   ---       ACC_BITMAPHI
      000000F8H   SYMBOL    NUMBER   ---       ACC_BITMAPLO
      0000008AH   SYMBOL    NUMBER   ---       ACC_BLKLEN_LENHI
      0000008BH   SYMBOL    NUMBER   ---       ACC_BLKNUM_LENLO
      000000F1H   SYMBOL    NUMBER   ---       ACC_CMPDATA0_SUMHIE
      000000F2H   SYMBOL    NUMBER   ---       ACC_CMPDATA1_SUMHI
      000000F3H   SYMBOL    NUMBER   ---       ACC_CMPDATA2_SUMLO
      000000F4H   SYMBOL    NUMBER   ---       ACC_CMPDATA3_SUMLOE
      00000089H   SYMBOL    NUMBER   ---       ACC_CTRL
      0000008CH   SYMBOL    NUMBER   ---       ACC_FIFO
      000000F5H   SYMBOL    NUMBER   ---       ACC_MATCNTHI
      000000F6H   SYMBOL    NUMBER   ---       ACC_MATCNTLO
      000000F1H   SYMBOL    NUMBER   ---       ADC_CTL0
      000000FDH   SYMBOL    NUMBER   ---       ADC_CTL1
      000000BDH   SYMBOL    NUMBER   ---       ADC_DAC_CLK_CTL
      000000F8H   SYMBOL    NUMBER   ---       ADC_FIFOCTL0
      000000FCH   SYMBOL    NUMBER   ---       ADC_FIFOCTL1
      000000F7H   SYMBOL    NUMBER   ---       ADC_FIFO_DAT
      000000F3H   SYMBOL    NUMBER   ---       ADC_GAIN0
      000000F4H   SYMBOL    NUMBER   ---       ADC_GAIN1
      000000A2H   SYMBOL    NUMBER   ---       ADC_SRFT_CTL0
      000000A3H   SYMBOL    NUMBER   ---       ADC_SRFT_CTL1
      000000A4H   SYMBOL    NUMBER   ---       ADC_SRFT_CTL2
      000000A5H   SYMBOL    NUMBER   ---       ADC_SRFT_CTL3
      000000A6H   SYMBOL    NUMBER   ---       ADC_SRFT_CTL4
      000000F5H   SYMBOL    NUMBER   ---       ADC_TUNE0
      000000F6H   SYMBOL    NUMBER   ---       ADC_TUNE1
      000000D3H   SYMBOL    NUMBER   ---       AD_SELECT
      000000DCH   SYMBOL    NUMBER   ---       AD_SELECT1
L251 LINKER/LOCATER V4.25                                                             12/13/2018  16:28:37  PAGE 77


      000000C4H   SYMBOL    NUMBER   ---       AECLKCTL
      000000E8H   SYMBOL    NUMBER   ---       AIE
      000000C0H   SYMBOL    NUMBER   ---       AIF
      000000F2H   SYMBOL    NUMBER   ---       AINOP_CTL
      000000F7H   SYMBOL    NUMBER   ---       AIPH
      000000F8H   SYMBOL    NUMBER   ---       AIPL
      000000ADH   SYMBOL    NUMBER   ---       AUCODECBIRRATEH
      000000AEH   SYMBOL    NUMBER   ---       AUCODECBIRRATEL
      000000B2H   SYMBOL    NUMBER   ---       AUCODECCTIMEH
      000000B3H   SYMBOL    NUMBER   ---       AUCODECCTIMEM
      000000B4H   SYMBOL    NUMBER   ---       AUCODECCTIMES
      00000090H   SYMBOL    NUMBER   ---       AUCODECCTL
      00000092H   SYMBOL    NUMBER   ---       AUCODECDEBUG
      00000095H   SYMBOL    NUMBER   ---       AUCODECDEBUG2
      00000097H   SYMBOL    NUMBER   ---       AUCODECDECSTATEH
      00000098H   SYMBOL    NUMBER   ---       AUCODECDECSTATEL
      00000093H   SYMBOL    NUMBER   ---       AUCODECFIFOCTL
      00000094H   SYMBOL    NUMBER   ---       AUCODECFIFODATA
      000000ACH   SYMBOL    NUMBER   ---       AUCODECHEADERINFO
      000000A9H   SYMBOL    NUMBER   ---       AUCODECIE
      000000AAH   SYMBOL    NUMBER   ---       AUCODECIP
      000000AFH   SYMBOL    NUMBER   ---       AUCODECTTIMEH
      000000B0H   SYMBOL    NUMBER   ---       AUCODECTTIMEM
      000000B1H   SYMBOL    NUMBER   ---       AUCODECTTIMES
      00000091H   SYMBOL    NUMBER   ---       AUDEBUGLENGTH
      000000ABH   SYMBOL    NUMBER   ---       AUDECENCCTL
      000000B9H   SYMBOL    NUMBER   ---       AUDIO_PLL_CTL
      00000089H   SYMBOL    NUMBER   ---       AUTOINTIMER
      000000ECH   SYMBOL    NUMBER   ---       AUTONAKCTRL
      000000F0H   SYMBOL    NUMBER   ---       B
      00000091H   SYMBOL    NUMBER   ---       BATADC_DATA
      0000008BH   SYMBOL    NUMBER   ---       BDG_CTL
      0000008CH   SYMBOL    NUMBER   ---       BDG_VOL
      000000C2H   SYMBOL    NUMBER   ---       BEPCTL1
      000000C3H   SYMBOL    NUMBER   ---       BEPCTL2
      000000C4H   SYMBOL    NUMBER   ---       BEPCTL3
      000000C5H   SYMBOL    NUMBER   ---       BEPCTL4
      000000C6H   SYMBOL    NUMBER   ---       BEPCTL5
      00000085H   SYMBOL    NUMBER   ---       BIRDINFO
      000000E1H   SYMBOL    NUMBER   ---       BIST_EN1
      000000E2H   SYMBOL    NUMBER   ---       BIST_EN2
      000000E4H   SYMBOL    NUMBER   ---       BIST_FIN1
      000000E5H   SYMBOL    NUMBER   ---       BIST_FIN2
      000000E7H   SYMBOL    NUMBER   ---       BIST_INFO1
      000000E9H   SYMBOL    NUMBER   ---       BIST_INFO2
      000000F3H   SYMBOL    NUMBER   ---       BKDOOR
      0000008EH   SYMBOL    NUMBER   ---       CCMCON
      0000008FH   SYMBOL    NUMBER   ---       CCMVAL
      000000F4H   SYMBOL    NUMBER   ---       CHIPVERSION
      000000A9H   SYMBOL    NUMBER   ---       CLKENCTL0
      000000AAH   SYMBOL    NUMBER   ---       CLKENCTL1
      000000ABH   SYMBOL    NUMBER   ---       CLKENCTL2
      000000CFH   SYMBOL    NUMBER   ---       CLKGATE
      000000A5H   SYMBOL    NUMBER   ---       CODEREPLACEENTRYEX
      000000A6H   SYMBOL    NUMBER   ---       CODEREPLACEENTRYH
      000000A7H   SYMBOL    NUMBER   ---       CODEREPLACEENTRYL
      000000C2H   SYMBOL    NUMBER   ---       CPUCLKCTL
      00000097H   SYMBOL    NUMBER   ---       CP_CTL0
      00000098H   SYMBOL    NUMBER   ---       CP_CTL1
      000000BBH   SYMBOL    NUMBER   ---       CTCCNTH
      000000D9H   SYMBOL    NUMBER   ---       CTCCNTH2
      000000BAH   SYMBOL    NUMBER   ---       CTCCNTL
      000000D8H   SYMBOL    NUMBER   ---       CTCCNTL2
      000000B9H   SYMBOL    NUMBER   ---       CTCCTL
      000000D7H   SYMBOL    NUMBER   ---       CTCCTL2
L251 LINKER/LOCATER V4.25                                                             12/13/2018  16:28:37  PAGE 78


      000000CAH   SYMBOL    NUMBER   ---       CURRENTENERGY
      00000687H   SYMBOL    BIT      ---       CY
      000000E4H   SYMBOL    NUMBER   ---       DAC_ANALOG0
      000000E5H   SYMBOL    NUMBER   ---       DAC_ANALOG1
      000000D8H   SYMBOL    NUMBER   ---       DAC_CH0_FIFO_CTL0
      000000D9H   SYMBOL    NUMBER   ---       DAC_CH0_FIFO_CTL1
      000000DCH   SYMBOL    NUMBER   ---       DAC_CH0_PCMH
      000000DAH   SYMBOL    NUMBER   ---       DAC_CH0_PCML
      000000DBH   SYMBOL    NUMBER   ---       DAC_CH0_PCMM
      00000092H   SYMBOL    NUMBER   ---       DAC_CH0_SRFT_CTL0
      00000093H   SYMBOL    NUMBER   ---       DAC_CH0_SRFT_CTL1
      00000094H   SYMBOL    NUMBER   ---       DAC_CH0_SRFT_CTL2
      00000095H   SYMBOL    NUMBER   ---       DAC_CH0_SRFT_CTL3
      00000097H   SYMBOL    NUMBER   ---       DAC_CH0_SRFT_CTL4
      00000090H   SYMBOL    NUMBER   ---       DAC_CH0_SR_CTL
      00000091H   SYMBOL    NUMBER   ---       DAC_CH0_SR_GAIN
      000000DDH   SYMBOL    NUMBER   ---       DAC_CH1_FIFO_CTL0
      000000DEH   SYMBOL    NUMBER   ---       DAC_CH1_FIFO_CTL1
      000000E1H   SYMBOL    NUMBER   ---       DAC_CH1_PCMH
      000000DFH   SYMBOL    NUMBER   ---       DAC_CH1_PCML
      0000009AH   SYMBOL    NUMBER   ---       DAC_CH1_SRFT_CTL0
      0000009BH   SYMBOL    NUMBER   ---       DAC_CH1_SRFT_CTL1
      0000009CH   SYMBOL    NUMBER   ---       DAC_CH1_SRFT_CTL2
      0000009DH   SYMBOL    NUMBER   ---       DAC_CH1_SRFT_CTL3
      0000009EH   SYMBOL    NUMBER   ---       DAC_CH1_SRFT_CTL4
      00000098H   SYMBOL    NUMBER   ---       DAC_CH1_SR_CTL
      00000099H   SYMBOL    NUMBER   ---       DAC_CH1_SR_GAIN
      000000D5H   SYMBOL    NUMBER   ---       DAC_CTL
      000000E6H   SYMBOL    NUMBER   ---       DAC_TUNE0
      000000E7H   SYMBOL    NUMBER   ---       DAC_TUNE1
      000000D6H   SYMBOL    NUMBER   ---       DAC_VOLUME0
      000000D7H   SYMBOL    NUMBER   ---       DAC_VOLUME1
      000000E3H   SYMBOL    NUMBER   ---       DBGAIE
      000000E2H   SYMBOL    NUMBER   ---       DBGAOE
      000000E5H   SYMBOL    NUMBER   ---       DBGBIE
      000000E4H   SYMBOL    NUMBER   ---       DBGBOE
      000000E6H   SYMBOL    NUMBER   ---       DBGCOE
      000000E9H   SYMBOL    NUMBER   ---       DBGDOE
      000000EEH   SYMBOL    NUMBER   ---       DBGMODE
      000000DBH   SYMBOL    NUMBER   ---       DBGSEL
      000000ECH   SYMBOL    NUMBER   ---       DDV_CTL0
      000000C1H   SYMBOL    NUMBER   ---       DISCARDLEN
      00000093H   SYMBOL    NUMBER   ---       DMA01234DBG
      00000094H   SYMBOL    NUMBER   ---       DMA0CTL0
      00000095H   SYMBOL    NUMBER   ---       DMA0CTL1
      0000009DH   SYMBOL    NUMBER   ---       DMA0DADDR0H
      0000009EH   SYMBOL    NUMBER   ---       DMA0DADDR0L
      0000009FH   SYMBOL    NUMBER   ---       DMA0DADDR0M
      000000A2H   SYMBOL    NUMBER   ---       DMA0DADDR1H
      000000A3H   SYMBOL    NUMBER   ---       DMA0DADDR1L
      000000A6H   SYMBOL    NUMBER   ---       DMA0DADDR1M
      000000A4H   SYMBOL    NUMBER   ---       DMA0FRAMELENH
      000000A5H   SYMBOL    NUMBER   ---       DMA0FRAMELENL
      00000092H   SYMBOL    NUMBER   ---       DMA0IE
      00000091H   SYMBOL    NUMBER   ---       DMA0IP
      00000097H   SYMBOL    NUMBER   ---       DMA0SADDR0H
      00000098H   SYMBOL    NUMBER   ---       DMA0SADDR0L
      0000009BH   SYMBOL    NUMBER   ---       DMA0SADDR0M
      00000099H   SYMBOL    NUMBER   ---       DMA0SADDR1H
      0000009AH   SYMBOL    NUMBER   ---       DMA0SADDR1L
      0000009CH   SYMBOL    NUMBER   ---       DMA0SADDR1M
      00000094H   SYMBOL    NUMBER   ---       DMA1CTL0
      00000095H   SYMBOL    NUMBER   ---       DMA1CTL1
      0000009DH   SYMBOL    NUMBER   ---       DMA1DADDR0H
      0000009EH   SYMBOL    NUMBER   ---       DMA1DADDR0L
L251 LINKER/LOCATER V4.25                                                             12/13/2018  16:28:37  PAGE 79


      0000009FH   SYMBOL    NUMBER   ---       DMA1DADDR0M
      000000A2H   SYMBOL    NUMBER   ---       DMA1DADDR1H
      000000A3H   SYMBOL    NUMBER   ---       DMA1DADDR1L
      000000A6H   SYMBOL    NUMBER   ---       DMA1DADDR1M
      000000A4H   SYMBOL    NUMBER   ---       DMA1FRAMELENH
      000000A5H   SYMBOL    NUMBER   ---       DMA1FRAMELENL
      00000092H   SYMBOL    NUMBER   ---       DMA1IE
      00000091H   SYMBOL    NUMBER   ---       DMA1IP
      00000097H   SYMBOL    NUMBER   ---       DMA1SADDR0H
      00000098H   SYMBOL    NUMBER   ---       DMA1SADDR0L
      0000009BH   SYMBOL    NUMBER   ---       DMA1SADDR0M
      00000099H   SYMBOL    NUMBER   ---       DMA1SADDR1H
      0000009AH   SYMBOL    NUMBER   ---       DMA1SADDR1L
      0000009CH   SYMBOL    NUMBER   ---       DMA1SADDR1M
      00000094H   SYMBOL    NUMBER   ---       DMA2CTL0
      00000095H   SYMBOL    NUMBER   ---       DMA2CTL1
      0000009DH   SYMBOL    NUMBER   ---       DMA2DADDR0H
      0000009EH   SYMBOL    NUMBER   ---       DMA2DADDR0L
      0000009FH   SYMBOL    NUMBER   ---       DMA2DADDR0M
      000000A2H   SYMBOL    NUMBER   ---       DMA2DADDR1H
      000000A3H   SYMBOL    NUMBER   ---       DMA2DADDR1L
      000000A6H   SYMBOL    NUMBER   ---       DMA2DADDR1M
      000000A4H   SYMBOL    NUMBER   ---       DMA2FRAMELENH
      000000A5H   SYMBOL    NUMBER   ---       DMA2FRAMELENL
      00000092H   SYMBOL    NUMBER   ---       DMA2IE
      00000091H   SYMBOL    NUMBER   ---       DMA2IP
      00000097H   SYMBOL    NUMBER   ---       DMA2SADDR0H
      00000098H   SYMBOL    NUMBER   ---       DMA2SADDR0L
      0000009BH   SYMBOL    NUMBER   ---       DMA2SADDR0M
      00000099H   SYMBOL    NUMBER   ---       DMA2SADDR1H
      0000009AH   SYMBOL    NUMBER   ---       DMA2SADDR1L
      0000009CH   SYMBOL    NUMBER   ---       DMA2SADDR1M
      00000094H   SYMBOL    NUMBER   ---       DMA3CTL0
      00000095H   SYMBOL    NUMBER   ---       DMA3CTL1
      0000009DH   SYMBOL    NUMBER   ---       DMA3DADDR0H
      0000009EH   SYMBOL    NUMBER   ---       DMA3DADDR0L
      0000009FH   SYMBOL    NUMBER   ---       DMA3DADDR0M
      000000A2H   SYMBOL    NUMBER   ---       DMA3DADDR1H
      000000A3H   SYMBOL    NUMBER   ---       DMA3DADDR1L
      000000A6H   SYMBOL    NUMBER   ---       DMA3DADDR1M
      000000A4H   SYMBOL    NUMBER   ---       DMA3FRAMELENH
      000000A5H   SYMBOL    NUMBER   ---       DMA3FRAMELENL
      00000092H   SYMBOL    NUMBER   ---       DMA3IE
      00000091H   SYMBOL    NUMBER   ---       DMA3IP
      00000097H   SYMBOL    NUMBER   ---       DMA3SADDR0H
      00000098H   SYMBOL    NUMBER   ---       DMA3SADDR0L
      0000009BH   SYMBOL    NUMBER   ---       DMA3SADDR0M
      00000099H   SYMBOL    NUMBER   ---       DMA3SADDR1H
      0000009AH   SYMBOL    NUMBER   ---       DMA3SADDR1L
      0000009CH   SYMBOL    NUMBER   ---       DMA3SADDR1M
      00000094H   SYMBOL    NUMBER   ---       DMA4CTL0
      00000095H   SYMBOL    NUMBER   ---       DMA4CTL1
      0000009DH   SYMBOL    NUMBER   ---       DMA4DADDR0H
      0000009EH   SYMBOL    NUMBER   ---       DMA4DADDR0L
      0000009FH   SYMBOL    NUMBER   ---       DMA4DADDR0M
      000000A2H   SYMBOL    NUMBER   ---       DMA4DADDR1H
      000000A3H   SYMBOL    NUMBER   ---       DMA4DADDR1L
      000000A6H   SYMBOL    NUMBER   ---       DMA4DADDR1M
      000000A4H   SYMBOL    NUMBER   ---       DMA4FRAMELENH
      000000A5H   SYMBOL    NUMBER   ---       DMA4FRAMELENL
      00000092H   SYMBOL    NUMBER   ---       DMA4IE
      00000091H   SYMBOL    NUMBER   ---       DMA4IP
      00000097H   SYMBOL    NUMBER   ---       DMA4SADDR0H
      00000098H   SYMBOL    NUMBER   ---       DMA4SADDR0L
      0000009BH   SYMBOL    NUMBER   ---       DMA4SADDR0M
L251 LINKER/LOCATER V4.25                                                             12/13/2018  16:28:37  PAGE 80


      00000099H   SYMBOL    NUMBER   ---       DMA4SADDR1H
      0000009AH   SYMBOL    NUMBER   ---       DMA4SADDR1L
      0000009CH   SYMBOL    NUMBER   ---       DMA4SADDR1M
      00000094H   SYMBOL    NUMBER   ---       DMANCTL0
      00000095H   SYMBOL    NUMBER   ---       DMANCTL1
      0000009DH   SYMBOL    NUMBER   ---       DMANDADDR0H
      0000009EH   SYMBOL    NUMBER   ---       DMANDADDR0L
      0000009FH   SYMBOL    NUMBER   ---       DMANDADDR0M
      000000A2H   SYMBOL    NUMBER   ---       DMANDADDR1H
      000000A3H   SYMBOL    NUMBER   ---       DMANDADDR1L
      000000A6H   SYMBOL    NUMBER   ---       DMANDADDR1M
      000000A4H   SYMBOL    NUMBER   ---       DMANFRAMELENH
      000000A5H   SYMBOL    NUMBER   ---       DMANFRAMELENL
      00000092H   SYMBOL    NUMBER   ---       DMANIE
      00000091H   SYMBOL    NUMBER   ---       DMANIP
      00000097H   SYMBOL    NUMBER   ---       DMANSADDR0H
      00000098H   SYMBOL    NUMBER   ---       DMANSADDR0L
      0000009BH   SYMBOL    NUMBER   ---       DMANSADDR0M
      00000099H   SYMBOL    NUMBER   ---       DMANSADDR1H
      0000009AH   SYMBOL    NUMBER   ---       DMANSADDR1L
      0000009CH   SYMBOL    NUMBER   ---       DMANSADDR1M
      00000094H   SYMBOL    NUMBER   ---       DPDMCTRL
      00000083H   SYMBOL    NUMBER   ---       DPH
      00000082H   SYMBOL    NUMBER   ---       DPL
      00000084H   SYMBOL    NUMBER   ---       DPXL
      00000547H   SYMBOL    BIT      ---       EA
      000000A4H   SYMBOL    NUMBER   ---       EFUSE0
      000000A5H   SYMBOL    NUMBER   ---       EFUSE1
      000000A6H   SYMBOL    NUMBER   ---       EFUSE2
      000000A7H   SYMBOL    NUMBER   ---       EFUSE3
      000000A3H   SYMBOL    NUMBER   ---       EFUSE_CTL
      00FFBC5BH   SYMBOL    ECODE    ---       ENDTRANS
      000000C6H   SYMBOL    NUMBER   ---       EP03IEN
      000000C5H   SYMBOL    NUMBER   ---       EP03IRQ
      000000C8H   SYMBOL    NUMBER   ---       EP03TOKIEN
      000000C7H   SYMBOL    NUMBER   ---       EP03TOKIRQ
      00000099H   SYMBOL    NUMBER   ---       EP0CS_HCEP0CS
      000000ABH   SYMBOL    NUMBER   ---       EP0INDATA
      000000ACH   SYMBOL    NUMBER   ---       EP0OUTDATA
      0000008CH   SYMBOL    NUMBER   ---       EP1DMALENH
      0000008DH   SYMBOL    NUMBER   ---       EP1DMALENL
      0000008AH   SYMBOL    NUMBER   ---       EP1STADDRH
      0000008BH   SYMBOL    NUMBER   ---       EP1STADDRL
      000000E2H   SYMBOL    NUMBER   ---       EP2DMALENH
      000000E3H   SYMBOL    NUMBER   ---       EP2DMALENL
      000000B7H   SYMBOL    NUMBER   ---       EP2STADDRH
      000000B8H   SYMBOL    NUMBER   ---       EP2STADDRL
      000000CAH   SYMBOL    NUMBER   ---       EPRST
      000000D8H   SYMBOL    NUMBER   ---       EXTINT
      0000009EH   SYMBOL    NUMBER   ---       EXTMEM_CTL
      000000FEH   SYMBOL    NUMBER   ---       EXTMEM_DH
      000000FFH   SYMBOL    NUMBER   ---       EXTMEM_DL
      0000009FH   SYMBOL    NUMBER   ---       EXTMEM_WT
      00000096H   SYMBOL    NUMBER   ---       EXWAIT
      00000685H   SYMBOL    BIT      ---       F0
      000000A7H   SYMBOL    NUMBER   ---       FIFO1DAT
      000000A9H   SYMBOL    NUMBER   ---       FIFO2DAT
      000000AAH   SYMBOL    NUMBER   ---       FIFO3DAT
      000000D2H   SYMBOL    NUMBER   ---       FIFOCTRL
      000000D3H   SYMBOL    NUMBER   ---       FIXADDR0H
      000000BAH   SYMBOL    NUMBER   ---       FIXADDR0L
      000000B9H   SYMBOL    NUMBER   ---       FIXADDR0M
      000000BBH   SYMBOL    NUMBER   ---       FIXADDR1H
      000000BDH   SYMBOL    NUMBER   ---       FIXADDR1L
      000000BCH   SYMBOL    NUMBER   ---       FIXADDR1M
L251 LINKER/LOCATER V4.25                                                             12/13/2018  16:28:37  PAGE 81


      000000C2H   SYMBOL    NUMBER   ---       FIXADDR2H
      000000C4H   SYMBOL    NUMBER   ---       FIXADDR2L
      000000C3H   SYMBOL    NUMBER   ---       FIXADDR2M
      000000C5H   SYMBOL    NUMBER   ---       FIXADDR3H
      000000C7H   SYMBOL    NUMBER   ---       FIXADDR3L
      000000C6H   SYMBOL    NUMBER   ---       FIXADDR3M
      000000C8H   SYMBOL    NUMBER   ---       FMCLKCTL
      000000CEH   SYMBOL    NUMBER   ---       FNADDR
      000000B9H   SYMBOL    NUMBER   ---       FRAMELEN0
      000000B8H   SYMBOL    NUMBER   ---       FRAMELEN1
      000000CCH   SYMBOL    NUMBER   ---       FRMCNTH
      000000CDH   SYMBOL    NUMBER   ---       FRMCNTL
      000000FCH   SYMBOL    NUMBER   ---       FSMPRESTATE
      000000A2H   SYMBOL    NUMBER   ---       FS_CTL
      000000C7H   SYMBOL    NUMBER   ---       GLOBALGAINH
      000000C9H   SYMBOL    NUMBER   ---       GLOBALGAINL
      000000C8H   SYMBOL    NUMBER   ---       GLOBALGAINM
      000000A4H   SYMBOL    NUMBER   ---       GPIOADAT
      000000A3H   SYMBOL    NUMBER   ---       GPIOAINEN
      000000A2H   SYMBOL    NUMBER   ---       GPIOAOUTEN
      000000A6H   SYMBOL    NUMBER   ---       GPIOAPDEN
      000000A5H   SYMBOL    NUMBER   ---       GPIOAPUEN
      000000AAH   SYMBOL    NUMBER   ---       GPIOBDAT
      000000A9H   SYMBOL    NUMBER   ---       GPIOBINEN
      000000A7H   SYMBOL    NUMBER   ---       GPIOBOUTEN
      000000ACH   SYMBOL    NUMBER   ---       GPIOBPDEN
      000000ABH   SYMBOL    NUMBER   ---       GPIOBPUEN
      000000AFH   SYMBOL    NUMBER   ---       GPIOCDAT
      000000AEH   SYMBOL    NUMBER   ---       GPIOCINEN
      000000ADH   SYMBOL    NUMBER   ---       GPIOCOUTEN
      000000B1H   SYMBOL    NUMBER   ---       GPIOCPDEN
      000000B0H   SYMBOL    NUMBER   ---       GPIOCPUEN
      000000B4H   SYMBOL    NUMBER   ---       GPIODDAT
      000000B3H   SYMBOL    NUMBER   ---       GPIODINEN
      000000B2H   SYMBOL    NUMBER   ---       GPIODOUTEN
      000000B6H   SYMBOL    NUMBER   ---       GPIODPDEN
      000000B5H   SYMBOL    NUMBER   ---       GPIODPUEN
      000000B9H   SYMBOL    NUMBER   ---       GPIOEDAT
      000000B8H   SYMBOL    NUMBER   ---       GPIOEINEN
      000000B7H   SYMBOL    NUMBER   ---       GPIOEOUTEN
      000000BBH   SYMBOL    NUMBER   ---       GPIOEPDEN
      000000BAH   SYMBOL    NUMBER   ---       GPIOEPUEN
      000000BFH   SYMBOL    NUMBER   ---       GPIOFDAT
      000000BDH   SYMBOL    NUMBER   ---       GPIOFINEN
      000000BCH   SYMBOL    NUMBER   ---       GPIOFOUTEN
      000000C2H   SYMBOL    NUMBER   ---       GPIOFPDEN
      000000C1H   SYMBOL    NUMBER   ---       GPIOFPUEN
      000000C5H   SYMBOL    NUMBER   ---       GPIOGDAT
      000000C4H   SYMBOL    NUMBER   ---       GPIOGINEN
      000000C3H   SYMBOL    NUMBER   ---       GPIOGOUTEN
      000000C7H   SYMBOL    NUMBER   ---       GPIOGPDEN
      000000C6H   SYMBOL    NUMBER   ---       GPIOGPUEN
      000000D9H   SYMBOL    NUMBER   ---       HCEP03ERRIEN
      000000D8H   SYMBOL    NUMBER   ---       HCEP03ERRIRQ
      000000B0H   SYMBOL    NUMBER   ---       HCEP0CTRL
      000000D4H   SYMBOL    NUMBER   ---       HCFRMNH
      000000D5H   SYMBOL    NUMBER   ---       HCFRMNL
      000000D6H   SYMBOL    NUMBER   ---       HCFRMREMAINH
      000000D7H   SYMBOL    NUMBER   ---       HCFRMREMAINL
      000000B2H   SYMBOL    NUMBER   ---       HCIN0ERR
      000000E4H   SYMBOL    NUMBER   ---       HCIN0MAXPCK
      000000FDH   SYMBOL    NUMBER   ---       HCIN2CNTH
      000000FEH   SYMBOL    NUMBER   ---       HCIN2CNTL
      000000B5H   SYMBOL    NUMBER   ---       HCIN2CTRL
      000000B6H   SYMBOL    NUMBER   ---       HCIN2ERR
L251 LINKER/LOCATER V4.25                                                             12/13/2018  16:28:37  PAGE 82


      000000E5H   SYMBOL    NUMBER   ---       HCIN2MAXPCKH
      000000E6H   SYMBOL    NUMBER   ---       HCIN2MAXPCKL
      000000EDH   SYMBOL    NUMBER   ---       HCINCTRL
      000000B8H   SYMBOL    NUMBER   ---       HCL_CLK_CTL
      000000B5H   SYMBOL    NUMBER   ---       HCL_INTERVAL_CTL
      000000B1H   SYMBOL    NUMBER   ---       HCOUT0ERR
      000000B3H   SYMBOL    NUMBER   ---       HCOUT1CTRL
      000000B4H   SYMBOL    NUMBER   ---       HCOUT1ERR
      000000E9H   SYMBOL    NUMBER   ---       HCOUT1MAXPCKH
      000000EAH   SYMBOL    NUMBER   ---       HCOUT1MAXPCKL
      000000B9H   SYMBOL    NUMBER   ---       HCOUT3CTRL
      000000BAH   SYMBOL    NUMBER   ---       HCOUT3ERR
      000000E7H   SYMBOL    NUMBER   ---       HCOUT3MAXPCK
      000000D3H   SYMBOL    NUMBER   ---       HCPORTCTRL
      00FFBC26H   SYMBOL    ECODE    ---       HEXTOASC
      000000B6H   SYMBOL    NUMBER   ---       HOSC_CTL
      000000CFH   SYMBOL    NUMBER   ---       HPFGAIN
      000000E2H   SYMBOL    NUMBER   ---       I2S_CTL0
      000000E3H   SYMBOL    NUMBER   ---       I2S_CTL1
      00000092H   SYMBOL    NUMBER   ---       IDVBUSCTRL
      000000A8H   SYMBOL    NUMBER   ---       IE0
      00000088H   SYMBOL    NUMBER   ---       IF0
      000000F5H   SYMBOL    NUMBER   ---       IFDEBUG0
      000000F6H   SYMBOL    NUMBER   ---       IFDEBUG1
      00000098H   SYMBOL    NUMBER   ---       IN0BC_HCOUT0BC
      0000009AH   SYMBOL    NUMBER   ---       IN1BCH_HCOUT1BCH
      0000009BH   SYMBOL    NUMBER   ---       IN1BCL_HCOUT1BCL
      0000009DH   SYMBOL    NUMBER   ---       IN1CS_HCOUT1CS
      0000009CH   SYMBOL    NUMBER   ---       IN1CTRL_HCOUT1CTRL
      000000A4H   SYMBOL    NUMBER   ---       IN3BC_HCOUT3BC
      000000A6H   SYMBOL    NUMBER   ---       IN3CS_HCOUT3CS
      000000A5H   SYMBOL    NUMBER   ---       IN3CTRL_HCOUT3CTRL
      000000B7H   SYMBOL    NUMBER   ---       IPH0
      000000B8H   SYMBOL    NUMBER   ---       IPL0
      000000A5H   SYMBOL    NUMBER   ---       IR_CTL
      000000A9H   SYMBOL    NUMBER   ---       IR_HUC
      000000AAH   SYMBOL    NUMBER   ---       IR_KDC
      000000A7H   SYMBOL    NUMBER   ---       IR_LUC
      000000A6H   SYMBOL    NUMBER   ---       IR_STA
      000000C9H   SYMBOL    NUMBER   ---       IVECT
      000000CBH   SYMBOL    NUMBER   ---       KARAOKECTL
      0000008BH   SYMBOL    NUMBER   ---       LCD_DATA0
      0000008CH   SYMBOL    NUMBER   ---       LCD_DATA1
      00000098H   SYMBOL    NUMBER   ---       LCD_DATA10
      00000099H   SYMBOL    NUMBER   ---       LCD_DATA11
      0000009AH   SYMBOL    NUMBER   ---       LCD_DATA12
      0000009BH   SYMBOL    NUMBER   ---       LCD_DATA13
      0000009CH   SYMBOL    NUMBER   ---       LCD_DATA14
      0000009DH   SYMBOL    NUMBER   ---       LCD_DATA15
      0000008DH   SYMBOL    NUMBER   ---       LCD_DATA2
      00000090H   SYMBOL    NUMBER   ---       LCD_DATA3
      00000091H   SYMBOL    NUMBER   ---       LCD_DATA4
      00000092H   SYMBOL    NUMBER   ---       LCD_DATA5
      00000093H   SYMBOL    NUMBER   ---       LCD_DATA6
      00000094H   SYMBOL    NUMBER   ---       LCD_DATA7
      00000095H   SYMBOL    NUMBER   ---       LCD_DATA8
      00000097H   SYMBOL    NUMBER   ---       LCD_DATA9
      0000008AH   SYMBOL    NUMBER   ---       LCD_MODE
      000000CCH   SYMBOL    NUMBER   ---       LCHGAIN
      0000008AH   SYMBOL    NUMBER   ---       LDOPD_CTL
      000000C9H   SYMBOL    NUMBER   ---       LED_SEGLCDCLKCTL
      000000ECH   SYMBOL    NUMBER   ---       LED_SEG_BIAS_EN
      000000EBH   SYMBOL    NUMBER   ---       LED_SEG_RC_EN
      00FFBC37H   SYMBOL    ECODE    ---       LOOP1
      00FFBC3DH   SYMBOL    ECODE    ---       LOOP2
L251 LINKER/LOCATER V4.25                                                             12/13/2018  16:28:37  PAGE 83


      00FFB855H   SYMBOL    ECODE    ---       LOOPA1
      00FFB86AH   SYMBOL    ECODE    ---       LOOPA2
      00FFB877H   SYMBOL    ECODE    ---       LOOPB1
      00FFB87EH   SYMBOL    ECODE    ---       LOOPB2
      00FFB89DH   SYMBOL    ECODE    ---       LOOPC1
      00FFB8B5H   SYMBOL    ECODE    ---       LOOPC2
      00FFB8BFH   SYMBOL    ECODE    ---       LOOPC3
      00FFB8C3H   SYMBOL    ECODE    ---       LOOPC4
      00FFB8D1H   SYMBOL    ECODE    ---       LOOPC5
      00FFB8D9H   SYMBOL    ECODE    ---       LOOPC6
      00FFB8E4H   SYMBOL    ECODE    ---       LOOPD1
      00FFB8EEH   SYMBOL    ECODE    ---       LOOPD2
      00FFB905H   SYMBOL    ECODE    ---       LOOPE0
      00FFB911H   SYMBOL    ECODE    ---       LOOPE1
      00FFB913H   SYMBOL    ECODE    ---       LOOPE2
      00FFB91EH   SYMBOL    ECODE    ---       LOOPF1
      00FFB926H   SYMBOL    ECODE    ---       LOOPF2
      00FFB931H   SYMBOL    ECODE    ---       LOOPG1
      00FFB943H   SYMBOL    ECODE    ---       LOOPG2
      00FFB94BH   SYMBOL    ECODE    ---       LOOPH1
      00FFB956H   SYMBOL    ECODE    ---       LOOPH2
      00FFB977H   SYMBOL    ECODE    ---       LOOPI1
      00FFB979H   SYMBOL    ECODE    ---       LOOPI2
      00FFB984H   SYMBOL    ECODE    ---       LOOPI3
      00FFB9A2H   SYMBOL    ECODE    ---       LOOPI4
      00FFB9A7H   SYMBOL    ECODE    ---       LOOPI5
      00FFB9AFH   SYMBOL    ECODE    ---       LOOPI6
      00FFB9B6H   SYMBOL    ECODE    ---       LOOPJ1
      00FFB9B8H   SYMBOL    ECODE    ---       LOOPJ2
      00FFB9C6H   SYMBOL    ECODE    ---       LOOPK1
      00FFB9D8H   SYMBOL    ECODE    ---       LOOPK2
      00FFB9EFH   SYMBOL    ECODE    ---       LOOPL1
      00FFBA00H   SYMBOL    ECODE    ---       LOOPL2
      00FFBA02H   SYMBOL    ECODE    ---       LOOPL3
      00FFBA06H   SYMBOL    ECODE    ---       LOOPL4
      00FFBA17H   SYMBOL    ECODE    ---       LOOPL5
      00FFBA20H   SYMBOL    ECODE    ---       LOOPM1
      00FFBA22H   SYMBOL    ECODE    ---       LOOPM2
      00FFBA27H   SYMBOL    ECODE    ---       LOOPM3
      00FFBA2FH   SYMBOL    ECODE    ---       LOOPM4
      00FFBA49H   SYMBOL    ECODE    ---       LOOPN1
      00FFBA60H   SYMBOL    ECODE    ---       LOOPN2
      00FFBA62H   SYMBOL    ECODE    ---       LOOPN3
      00FFBA6BH   SYMBOL    ECODE    ---       LOOPN4
      00FFBA7FH   SYMBOL    ECODE    ---       LOOPO1
      00FFBA85H   SYMBOL    ECODE    ---       LOOPO2
      00FFBA8DH   SYMBOL    ECODE    ---       LOOPO3
      00FFBA95H   SYMBOL    ECODE    ---       LOOPO4
      00FFBA9FH   SYMBOL    ECODE    ---       LOOPO5
      00FFBAA7H   SYMBOL    ECODE    ---       LOOPO6
      00FFBAAFH   SYMBOL    ECODE    ---       LOOPO7
      00FFBAB3H   SYMBOL    ECODE    ---       LOOPO8
      00FFBACEH   SYMBOL    ECODE    ---       LOOPP1
      00FFBAE7H   SYMBOL    ECODE    ---       LOOPP2
      00FFBAEBH   SYMBOL    ECODE    ---       LOOPP3
      00FFBAF4H   SYMBOL    ECODE    ---       LOOPP4
      00FFBB01H   SYMBOL    ECODE    ---       LOOPQ1
      00FFBB10H   SYMBOL    ECODE    ---       LOOPQ2
      00FFBB11H   SYMBOL    ECODE    ---       LOOPQ3
      00FFBB16H   SYMBOL    ECODE    ---       LOOPQ4
      00FFBB21H   SYMBOL    ECODE    ---       LOOPR1
      00FFBB2FH   SYMBOL    ECODE    ---       LOOPR2
      00FFBB37H   SYMBOL    ECODE    ---       LOOPR3
      00FFBB58H   SYMBOL    ECODE    ---       LOOPS1
      00FFBB66H   SYMBOL    ECODE    ---       LOOPS2
L251 LINKER/LOCATER V4.25                                                             12/13/2018  16:28:37  PAGE 84


      00FFBB6AH   SYMBOL    ECODE    ---       LOOPS3
      00FFBB83H   SYMBOL    ECODE    ---       LOOPT1
      00FFBB93H   SYMBOL    ECODE    ---       LOOPT2
      00FFBBB0H   SYMBOL    ECODE    ---       LOOPU1
      00FFBBC0H   SYMBOL    ECODE    ---       LOOPU2
      000000B7H   SYMBOL    NUMBER   ---       LOSC_CTL
      000000CEH   SYMBOL    NUMBER   ---       LPFGAIN
      00000092H   SYMBOL    NUMBER   ---       LRADC1_DATA
      00000093H   SYMBOL    NUMBER   ---       LRADC3_DATA
      00000094H   SYMBOL    NUMBER   ---       LRADC4_DATA
      00000095H   SYMBOL    NUMBER   ---       LRADC5_DATA
      000000B3H   SYMBOL    NUMBER   ---       MCU_PLL_CTL
      000000BCH   SYMBOL    NUMBER   ---       MCU_PLL_DEBUG_CTL
      000000BAH   SYMBOL    NUMBER   ---       MCU_PLL_SSC_CTL
      000000BBH   SYMBOL    NUMBER   ---       MCU_PLL_SSC_FSTEP
      000000F9H   SYMBOL    NUMBER   ---       MEMBANKCTL
      000000B4H   SYMBOL    NUMBER   ---       MEMCLKENCTL0
      000000ADH   SYMBOL    NUMBER   ---       MEMCLKSELCTL0
      000000AEH   SYMBOL    NUMBER   ---       MEMCLKSELCTL1
      000000C8H   SYMBOL    NUMBER   ---       MFP_CTL0
      000000C9H   SYMBOL    NUMBER   ---       MFP_CTL1
      000000CAH   SYMBOL    NUMBER   ---       MFP_CTL2
      000000CBH   SYMBOL    NUMBER   ---       MFP_CTL3
      000000CCH   SYMBOL    NUMBER   ---       MFP_CTL4
      000000CDH   SYMBOL    NUMBER   ---       MFP_CTL5
      000000CEH   SYMBOL    NUMBER   ---       MFP_CTL6
      000000CFH   SYMBOL    NUMBER   ---       MFP_CTL7
      000000D2H   SYMBOL    NUMBER   ---       MFP_CTL8
      000000ADH   SYMBOL    NUMBER   ---       MP3BITRATEH
      000000AEH   SYMBOL    NUMBER   ---       MP3BITRATEL
      000000B2H   SYMBOL    NUMBER   ---       MP3CTIMEH
      000000B3H   SYMBOL    NUMBER   ---       MP3CTIMEM
      000000B4H   SYMBOL    NUMBER   ---       MP3CTIMES
      000000ABH   SYMBOL    NUMBER   ---       MP3CTL
      000000ABH   SYMBOL    NUMBER   ---       MP3ENCCTL
      000000ACH   SYMBOL    NUMBER   ---       MP3ENCINFO
      000000BAH   SYMBOL    NUMBER   ---       MP3FILELEN1
      000000B9H   SYMBOL    NUMBER   ---       MP3FILELEN2
      000000B8H   SYMBOL    NUMBER   ---       MP3FILELEN3
      000000B5H   SYMBOL    NUMBER   ---       MP3FRAMENUMH
      000000B7H   SYMBOL    NUMBER   ---       MP3FRAMENUML
      000000B6H   SYMBOL    NUMBER   ---       MP3FRAMENUMM
      000000ACH   SYMBOL    NUMBER   ---       MP3HEADERINFO
      000000BBH   SYMBOL    NUMBER   ---       MP3HEADERSYNCTL
      000000A9H   SYMBOL    NUMBER   ---       MP3IE
      000000AAH   SYMBOL    NUMBER   ---       MP3IP
      000000AFH   SYMBOL    NUMBER   ---       MP3TTIMEH
      000000B0H   SYMBOL    NUMBER   ---       MP3TTIMEM
      000000B1H   SYMBOL    NUMBER   ---       MP3TTIMES
      000000A1H   SYMBOL    NUMBER   ---       MPAGE
      00000086H   SYMBOL    NUMBER   ---       MRCR1
      00000089H   SYMBOL    NUMBER   ---       MRCR2
      0000009FH   SYMBOL    NUMBER   ---       MRCR3
      0000008DH   SYMBOL    NUMBER   ---       MULTI_USED
      00FFBC5EH   SYMBOL    ECODE    ---       MYTAB
      00FFBC46H   SYMBOL    ECODE    ---       N_LITTLE_0
      000000DCH   SYMBOL    NUMBER   ---       OTGCTRL
      000000DEH   SYMBOL    NUMBER   ---       OTGIEN
      000000DAH   SYMBOL    NUMBER   ---       OTGIRQ
      000000DBH   SYMBOL    NUMBER   ---       OTGSTATE
      000000DDH   SYMBOL    NUMBER   ---       OTGSTATUS
      000000F5H   SYMBOL    NUMBER   ---       OTGTRIEN
      000000F6H   SYMBOL    NUMBER   ---       OTGTRIRQ
      00000097H   SYMBOL    NUMBER   ---       OUT0BC_HCIN0BC
      0000009EH   SYMBOL    NUMBER   ---       OUT2BCH_HCIN2BCH
L251 LINKER/LOCATER V4.25                                                             12/13/2018  16:28:37  PAGE 85


      0000009FH   SYMBOL    NUMBER   ---       OUT2BCL_HCIN2BCL
      000000A3H   SYMBOL    NUMBER   ---       OUT2CS_HCIN2CS
      000000A2H   SYMBOL    NUMBER   ---       OUT2CTRL_HCIN2CTRL
      00000090H   SYMBOL    NUMBER   ---       OUTPCKCNTH
      00000091H   SYMBOL    NUMBER   ---       OUTPCKCNTL
      00FFBC21H   SYMBOL    ECODE    ---       OUT_RANGE
      00000682H   SYMBOL    BIT      ---       OV
      00000680H   SYMBOL    BIT      ---       P
      000000A0H   SYMBOL    NUMBER   ---       P2
      000000D5H   SYMBOL    NUMBER   ---       PADDRV0
      000000D6H   SYMBOL    NUMBER   ---       PADDRV1
      000000D7H   SYMBOL    NUMBER   ---       PADDRV2
      000000D9H   SYMBOL    NUMBER   ---       PADDRV3
      000000DAH   SYMBOL    NUMBER   ---       PADDRV4
      000000D4H   SYMBOL    NUMBER   ---       PADPUPD
      00000090H   SYMBOL    NUMBER   ---       PAGEADDR0H
      00000091H   SYMBOL    NUMBER   ---       PAGEADDR0L
      00000092H   SYMBOL    NUMBER   ---       PAGEADDR1H
      00000093H   SYMBOL    NUMBER   ---       PAGEADDR1L
      00000094H   SYMBOL    NUMBER   ---       PAGEADDR2H
      00000095H   SYMBOL    NUMBER   ---       PAGEADDR2L
      00000098H   SYMBOL    NUMBER   ---       PAGEADDR3H
      00000099H   SYMBOL    NUMBER   ---       PAGEADDR3L
      0000009AH   SYMBOL    NUMBER   ---       PAGEADDR4H
      0000009BH   SYMBOL    NUMBER   ---       PAGEADDR4L
      0000009CH   SYMBOL    NUMBER   ---       PAGEADDR5H
      0000009DH   SYMBOL    NUMBER   ---       PAGEADDR5L
      0000009EH   SYMBOL    NUMBER   ---       PAGEADDR6H
      0000009FH   SYMBOL    NUMBER   ---       PAGEADDR6L
      000000A2H   SYMBOL    NUMBER   ---       PAGEADDR7H
      000000A3H   SYMBOL    NUMBER   ---       PAGEADDR7L
      000000D8H   SYMBOL    NUMBER   ---       PAGEADDR8H
      000000D9H   SYMBOL    NUMBER   ---       PAGEADDR8L
      000000DAH   SYMBOL    NUMBER   ---       PAGEADDR9H
      000000DBH   SYMBOL    NUMBER   ---       PAGEADDR9L
      000000B0H   SYMBOL    NUMBER   ---       PAGEADDRMASK0
      000000B1H   SYMBOL    NUMBER   ---       PAGEADDRMASK1
      000000B2H   SYMBOL    NUMBER   ---       PAGEADDRMASK2
      000000B3H   SYMBOL    NUMBER   ---       PAGEADDRMASK3
      000000B4H   SYMBOL    NUMBER   ---       PAGEADDRMASK4
      000000B5H   SYMBOL    NUMBER   ---       PAGEADDRMASK5
      000000B6H   SYMBOL    NUMBER   ---       PAGEADDRMASK6
      000000D2H   SYMBOL    NUMBER   ---       PAGEADDRMASK7
      000000D4H   SYMBOL    NUMBER   ---       PAGEADDRMASK8
      000000D5H   SYMBOL    NUMBER   ---       PAGEADDRMASK9
      000000F4H   SYMBOL    NUMBER   ---       PAGEMISSENTRYEX
      000000F5H   SYMBOL    NUMBER   ---       PAGEMISSENTRYH
      000000F6H   SYMBOL    NUMBER   ---       PAGEMISSENTRYL
      000000EBH   SYMBOL    NUMBER   ---       PA_APCTL
      000000EAH   SYMBOL    NUMBER   ---       PA_CTL
      000000E9H   SYMBOL    NUMBER   ---       PA_VOLUME
      00000087H   SYMBOL    NUMBER   ---       PCON
      000000BDH   SYMBOL    NUMBER   ---       PHYSICALADDRH
      000000BFH   SYMBOL    NUMBER   ---       PHYSICALADDRL
      00000090H   SYMBOL    NUMBER   ---       PMUADC_CTL
      000000D0H   SYMBOL    NUMBER   ---       PSW
      000000D1H   SYMBOL    NUMBER   ---       PSW1
      000000C3H   SYMBOL    NUMBER   ---       PWMCLKCTL
      000000AFH   SYMBOL    NUMBER   ---       PWMDUTY
      000000CDH   SYMBOL    NUMBER   ---       RCHGAIN
      000000C8H   SYMBOL    NUMBER   ---       REDIRECTADDR0
      000000C9H   SYMBOL    NUMBER   ---       REDIRECTADDR1
      000000CAH   SYMBOL    NUMBER   ---       REDIRECTADDR2
      000000CBH   SYMBOL    NUMBER   ---       REDIRECTADDR3
      000000CCH   SYMBOL    NUMBER   ---       REDIRECTADDR4
L251 LINKER/LOCATER V4.25                                                             12/13/2018  16:28:37  PAGE 86


      000000CDH   SYMBOL    NUMBER   ---       REDIRECTADDR5
      000000CEH   SYMBOL    NUMBER   ---       REDIRECTADDR6
      000000CFH   SYMBOL    NUMBER   ---       REDIRECTADDR7
      000000D6H   SYMBOL    NUMBER   ---       REDIRECTADDR8
      000000D7H   SYMBOL    NUMBER   ---       REDIRECTADDR9
      00000683H   SYMBOL    BIT      ---       RS0
      00000684H   SYMBOL    BIT      ---       RS1
      000000B3H   SYMBOL    NUMBER   ---       RTCALMH
      000000B2H   SYMBOL    NUMBER   ---       RTCALMM
      000000B1H   SYMBOL    NUMBER   ---       RTCALMS
      000000BCH   SYMBOL    NUMBER   ---       RTCRDM0
      000000BDH   SYMBOL    NUMBER   ---       RTCRDM1
      000000C8H   SYMBOL    NUMBER   ---       RTCRDM10
      000000C9H   SYMBOL    NUMBER   ---       RTCRDM11
      000000CAH   SYMBOL    NUMBER   ---       RTCRDM12
      000000CBH   SYMBOL    NUMBER   ---       RTCRDM13
      000000CCH   SYMBOL    NUMBER   ---       RTCRDM14
      000000CDH   SYMBOL    NUMBER   ---       RTCRDM15
      000000CEH   SYMBOL    NUMBER   ---       RTCRDM16
      000000CFH   SYMBOL    NUMBER   ---       RTCRDM17
      000000D2H   SYMBOL    NUMBER   ---       RTCRDM18
      000000D3H   SYMBOL    NUMBER   ---       RTCRDM19
      000000BFH   SYMBOL    NUMBER   ---       RTCRDM2
      000000D4H   SYMBOL    NUMBER   ---       RTCRDM20
      000000D5H   SYMBOL    NUMBER   ---       RTCRDM21
      000000D6H   SYMBOL    NUMBER   ---       RTCRDM22
      000000C1H   SYMBOL    NUMBER   ---       RTCRDM3
      000000C2H   SYMBOL    NUMBER   ---       RTCRDM4
      000000C3H   SYMBOL    NUMBER   ---       RTCRDM5
      000000C4H   SYMBOL    NUMBER   ---       RTCRDM6
      000000C5H   SYMBOL    NUMBER   ---       RTCRDM7
      000000C6H   SYMBOL    NUMBER   ---       RTCRDM8
      000000C7H   SYMBOL    NUMBER   ---       RTCRDM9
      000000B4H   SYMBOL    NUMBER   ---       RTCRUPD
      000000AEH   SYMBOL    NUMBER   ---       RTCTIMED
      000000ADH   SYMBOL    NUMBER   ---       RTCTIMEH
      000000ACH   SYMBOL    NUMBER   ---       RTCTIMEMINT
      000000AFH   SYMBOL    NUMBER   ---       RTCTIMEMON
      000000ABH   SYMBOL    NUMBER   ---       RTCTIMES
      000000B0H   SYMBOL    NUMBER   ---       RTCTIMEY
      0000009DH   SYMBOL    NUMBER   ---       RTCVDD_RESERVED
      000000A9H   SYMBOL    NUMBER   ---       RTC_CTL0
      000000AAH   SYMBOL    NUMBER   ---       RTC_CTL1
      000000ACH   SYMBOL    NUMBER   ---       SDCLKCTL
      00000099H   SYMBOL    NUMBER   ---       SD_BLK_NUM
      00000097H   SYMBOL    NUMBER   ---       SD_BLK_SIZE_H
      00000098H   SYMBOL    NUMBER   ---       SD_BLK_SIZE_L
      0000009AH   SYMBOL    NUMBER   ---       SD_CLK_CTL
      00000090H   SYMBOL    NUMBER   ---       SD_CMD
      00000091H   SYMBOL    NUMBER   ---       SD_CMD_ARGRSP
      0000009DH   SYMBOL    NUMBER   ---       SD_DATA_FIFO
      000000AEH   SYMBOL    NUMBER   ---       SD_DBG_CTL
      0000009CH   SYMBOL    NUMBER   ---       SD_INT_CTL
      0000009BH   SYMBOL    NUMBER   ---       SD_PAD_CTL
      00000092H   SYMBOL    NUMBER   ---       SD_RSP_POIN
      00000094H   SYMBOL    NUMBER   ---       SD_STATE
      00000093H   SYMBOL    NUMBER   ---       SD_TF_CTL
      0000009EH   SYMBOL    NUMBER   ---       SD_TIMEOUT_CTL
      000000ADH   SYMBOL    NUMBER   ---       SD_TIMING_CTL
      000000BBH   SYMBOL    NUMBER   ---       SETUPDAT0
      000000BCH   SYMBOL    NUMBER   ---       SETUPDAT1
      000000BDH   SYMBOL    NUMBER   ---       SETUPDAT2
      000000BFH   SYMBOL    NUMBER   ---       SETUPDAT3
      000000C1H   SYMBOL    NUMBER   ---       SETUPDAT4
      000000C2H   SYMBOL    NUMBER   ---       SETUPDAT5
L251 LINKER/LOCATER V4.25                                                             12/13/2018  16:28:37  PAGE 87


      000000C3H   SYMBOL    NUMBER   ---       SETUPDAT6
      000000C4H   SYMBOL    NUMBER   ---       SETUPDAT7
      00000080H   SYMBOL    NUMBER   ---       SFR_BANK
      000000AFH   SYMBOL    NUMBER   ---       SHORTPCKIRQ
      000000ABH   SYMBOL    NUMBER   ---       SOFTCTL
      000000A9H   SYMBOL    NUMBER   ---       SOFTIE
      000000AAH   SYMBOL    NUMBER   ---       SOFTIP
      00000081H   SYMBOL    NUMBER   ---       SP
      000000B5H   SYMBOL    NUMBER   ---       SPDIFRX_CNT_WR0
      000000B6H   SYMBOL    NUMBER   ---       SPDIFRX_CNT_WR1
      000000B7H   SYMBOL    NUMBER   ---       SPDIFRX_CNT_WR2
      000000B2H   SYMBOL    NUMBER   ---       SPDIFRX_CSTAT
      000000B0H   SYMBOL    NUMBER   ---       SPDIFRX_CTL
      000000B4H   SYMBOL    NUMBER   ---       SPDIFRX_DAT
      000000B3H   SYMBOL    NUMBER   ---       SPDIFRX_DEBUG
      000000B1H   SYMBOL    NUMBER   ---       SPDIFRX_STAT
      000000BEH   SYMBOL    NUMBER   ---       SPH
      000000CAH   SYMBOL    NUMBER   ---       SPICLKCTL
      000000A2H   SYMBOL    NUMBER   ---       SPI_BCH
      0000009FH   SYMBOL    NUMBER   ---       SPI_BCL
      0000009CH   SYMBOL    NUMBER   ---       SPI_CLKDIV
      00000099H   SYMBOL    NUMBER   ---       SPI_CTL
      000000A3H   SYMBOL    NUMBER   ---       SPI_DEBUG
      0000009AH   SYMBOL    NUMBER   ---       SPI_DRQ
      000000C8H   SYMBOL    NUMBER   ---       SPI_RAND
      0000009EH   SYMBOL    NUMBER   ---       SPI_RXDAT
      000000C9H   SYMBOL    NUMBER   ---       SPI_SEED0
      000000CAH   SYMBOL    NUMBER   ---       SPI_SEED1
      0000009BH   SYMBOL    NUMBER   ---       SPI_STA
      0000009DH   SYMBOL    NUMBER   ---       SPI_TXDAT
      00000081H   SYMBOL    NUMBER   ---       SPL
      000000CCH   SYMBOL    NUMBER   ---       SRSCTL0
      000000CDH   SYMBOL    NUMBER   ---       SRSCTL1
      000000CEH   SYMBOL    NUMBER   ---       SRSCTL2
      000000BCH   SYMBOL    NUMBER   ---       SYNHEADERDATA1
      000000BDH   SYMBOL    NUMBER   ---       SYNHEADERDATA2
      0000009BH   SYMBOL    NUMBER   ---       SYSTEM_CTL
      0000009CH   SYMBOL    NUMBER   ---       SYSTEM_ONOFF
      000000FCH   SYMBOL    NUMBER   ---       TESTCOUNTERBYTE0
      000000FDH   SYMBOL    NUMBER   ---       TESTCOUNTERBYTE1
      000000FEH   SYMBOL    NUMBER   ---       TESTCOUNTERBYTE2
      000000FFH   SYMBOL    NUMBER   ---       TESTCOUNTERBYTE3
      000000F1H   SYMBOL    NUMBER   ---       TESTCOUNTERBYTE4
      0000009AH   SYMBOL    NUMBER   ---       TEST_CTL
      000000B7H   SYMBOL    NUMBER   ---       TIMERHB
      000000B5H   SYMBOL    NUMBER   ---       TIMERLB
      000000B6H   SYMBOL    NUMBER   ---       TIMERMB
      000000A2H   SYMBOL    NUMBER   ---       TK_AUTO_HIGHTH_H
      000000A3H   SYMBOL    NUMBER   ---       TK_AUTO_HIGHTH_L
      0000009DH   SYMBOL    NUMBER   ---       TK_AUTO_LOWTH_H
      0000009EH   SYMBOL    NUMBER   ---       TK_AUTO_LOWTH_L
      0000009AH   SYMBOL    NUMBER   ---       TK_BL_CAL_TH
      0000009CH   SYMBOL    NUMBER   ---       TK_BUCKET_TH
      00000094H   SYMBOL    NUMBER   ---       TK_DB_CTL
      000000DAH   SYMBOL    NUMBER   ---       TK_DEBUG
      00000090H   SYMBOL    NUMBER   ---       TK_EN_CTL
      00000091H   SYMBOL    NUMBER   ---       TK_FUN_CTL
      00000092H   SYMBOL    NUMBER   ---       TK_IRQ_PD
      000000CAH   SYMBOL    NUMBER   ---       TK_KEY0_BL_H
      000000CCH   SYMBOL    NUMBER   ---       TK_KEY0_BL_L
      000000AEH   SYMBOL    NUMBER   ---       TK_KEY0_DATH
      000000AFH   SYMBOL    NUMBER   ---       TK_KEY0_DATL
      000000A4H   SYMBOL    NUMBER   ---       TK_KEY0_IDA_CTL
      000000BCH   SYMBOL    NUMBER   ---       TK_KEY0_RAWH
      000000BDH   SYMBOL    NUMBER   ---       TK_KEY0_RAWL
L251 LINKER/LOCATER V4.25                                                             12/13/2018  16:28:37  PAGE 88


      000000CDH   SYMBOL    NUMBER   ---       TK_KEY1_BL_H
      000000CEH   SYMBOL    NUMBER   ---       TK_KEY1_BL_L
      000000B0H   SYMBOL    NUMBER   ---       TK_KEY1_DATH
      000000B1H   SYMBOL    NUMBER   ---       TK_KEY1_DATL
      000000A5H   SYMBOL    NUMBER   ---       TK_KEY1_IDA_CTL
      000000BFH   SYMBOL    NUMBER   ---       TK_KEY1_RAWH
      000000C1H   SYMBOL    NUMBER   ---       TK_KEY1_RAWL
      000000D2H   SYMBOL    NUMBER   ---       TK_KEY2_BL_H
      000000D3H   SYMBOL    NUMBER   ---       TK_KEY2_BL_L
      000000B2H   SYMBOL    NUMBER   ---       TK_KEY2_DATH
      000000B3H   SYMBOL    NUMBER   ---       TK_KEY2_DATL
      000000A6H   SYMBOL    NUMBER   ---       TK_KEY2_IDA_CTL
      000000C2H   SYMBOL    NUMBER   ---       TK_KEY2_RAWH
      000000C3H   SYMBOL    NUMBER   ---       TK_KEY2_RAWL
      000000D4H   SYMBOL    NUMBER   ---       TK_KEY3_BL_H
      000000D5H   SYMBOL    NUMBER   ---       TK_KEY3_BL_L
      000000B4H   SYMBOL    NUMBER   ---       TK_KEY3_DATH
      000000B5H   SYMBOL    NUMBER   ---       TK_KEY3_DATL
      000000A9H   SYMBOL    NUMBER   ---       TK_KEY3_IDA_CTL
      000000C4H   SYMBOL    NUMBER   ---       TK_KEY3_RAWH
      000000C5H   SYMBOL    NUMBER   ---       TK_KEY3_RAWL
      000000D6H   SYMBOL    NUMBER   ---       TK_KEY4_BL_H
      000000D7H   SYMBOL    NUMBER   ---       TK_KEY4_BL_L
      000000B6H   SYMBOL    NUMBER   ---       TK_KEY4_DATH
      000000B7H   SYMBOL    NUMBER   ---       TK_KEY4_DATL
      000000AAH   SYMBOL    NUMBER   ---       TK_KEY4_IDA_CTL
      000000C6H   SYMBOL    NUMBER   ---       TK_KEY4_RAWH
      000000C7H   SYMBOL    NUMBER   ---       TK_KEY4_RAWL
      000000D8H   SYMBOL    NUMBER   ---       TK_KEY5_BL_H
      000000D9H   SYMBOL    NUMBER   ---       TK_KEY5_BL_L
      000000B8H   SYMBOL    NUMBER   ---       TK_KEY5_DATH
      000000B9H   SYMBOL    NUMBER   ---       TK_KEY5_DATL
      000000ABH   SYMBOL    NUMBER   ---       TK_KEY5_IDA_CTL
      000000C8H   SYMBOL    NUMBER   ---       TK_KEY5_RAWH
      000000C9H   SYMBOL    NUMBER   ---       TK_KEY5_RAWL
      0000009BH   SYMBOL    NUMBER   ---       TK_NOISE_TH
      00000093H   SYMBOL    NUMBER   ---       TK_PRESS_STA
      00000099H   SYMBOL    NUMBER   ---       TK_PRESS_TH
      00000095H   SYMBOL    NUMBER   ---       TK_PWM_CNTH
      00000097H   SYMBOL    NUMBER   ---       TK_PWM_CNTL
      000000BAH   SYMBOL    NUMBER   ---       TK_RAW_PD
      000000ADH   SYMBOL    NUMBER   ---       TK_UPDAT_PD
      00000090H   SYMBOL    NUMBER   ---       UART_BR
      00000092H   SYMBOL    NUMBER   ---       UART_CTL
      00000098H   SYMBOL    NUMBER   ---       UART_DEBUG
      00000093H   SYMBOL    NUMBER   ---       UART_DRQ
      00000091H   SYMBOL    NUMBER   ---       UART_MODE
      00000097H   SYMBOL    NUMBER   ---       UART_RXDAT
      00000094H   SYMBOL    NUMBER   ---       UART_STA
      00000095H   SYMBOL    NUMBER   ---       UART_TXDAT
      00000681H   SYMBOL    BIT      ---       UD
      00000086H   SYMBOL    NUMBER   ---       UDMAM
      000000CBH   SYMBOL    NUMBER   ---       USBCTRL_STUS
      000000EBH   SYMBOL    NUMBER   ---       USBEIRQ
      000000AEH   SYMBOL    NUMBER   ---       USBIEN_HCUSBIEN
      000000ADH   SYMBOL    NUMBER   ---       USBIRQ_HCUSBIRQ
      00000093H   SYMBOL    NUMBER   ---       USBSTATUS
      000000F7H   SYMBOL    NUMBER   ---       USB_EFUSE_REF
      00000095H   SYMBOL    NUMBER   ---       USB_PHYCTRL
      000000EFH   SYMBOL    NUMBER   ---       VDCTRL
      00000099H   SYMBOL    NUMBER   ---       VDD_RESERVED
      000000F1H   SYMBOL    NUMBER   ---       VDSTAT
      000000BBH   SYMBOL    NUMBER   ---       VIRTUALADDRH
      000000BCH   SYMBOL    NUMBER   ---       VIRTUALADDRL
      00000089H   SYMBOL    NUMBER   ---       VOUT_CTL
L251 LINKER/LOCATER V4.25                                                             12/13/2018  16:28:37  PAGE 89


      000000B5H   SYMBOL    NUMBER   ---       WAVBLOCKNUMH
      000000B7H   SYMBOL    NUMBER   ---       WAVBLOCKNUML
      000000B6H   SYMBOL    NUMBER   ---       WAVBLOCKNUMM
      000000B2H   SYMBOL    NUMBER   ---       WAVCTIMEH
      000000B3H   SYMBOL    NUMBER   ---       WAVCTIMEM
      000000B4H   SYMBOL    NUMBER   ---       WAVCTIMES
      000000ABH   SYMBOL    NUMBER   ---       WAVCTL
      000000ABH   SYMBOL    NUMBER   ---       WAVENCCTL
      000000ACH   SYMBOL    NUMBER   ---       WAVENCINFO
      000000ACH   SYMBOL    NUMBER   ---       WAVHEADERINFO1
      000000ADH   SYMBOL    NUMBER   ---       WAVHEADERINFO2
      000000A9H   SYMBOL    NUMBER   ---       WAVIE
      000000AAH   SYMBOL    NUMBER   ---       WAVIP
      000000AFH   SYMBOL    NUMBER   ---       WAVTTIMEH
      000000B0H   SYMBOL    NUMBER   ---       WAVTTIMEM
      000000B1H   SYMBOL    NUMBER   ---       WAVTTIMES
      000000B8H   SYMBOL    NUMBER   ---       WDCTL
      000000ADH   SYMBOL    NUMBER   ---       WMABITRATEH
      000000AEH   SYMBOL    NUMBER   ---       WMABITRATEL
      000000B2H   SYMBOL    NUMBER   ---       WMACTIMEH
      000000B3H   SYMBOL    NUMBER   ---       WMACTIMEM
      000000B4H   SYMBOL    NUMBER   ---       WMACTIMES
      000000ABH   SYMBOL    NUMBER   ---       WMACTL
      000000ACH   SYMBOL    NUMBER   ---       WMAHEADERINFO
      000000A9H   SYMBOL    NUMBER   ---       WMAIE
      000000AAH   SYMBOL    NUMBER   ---       WMAIP
      000000B5H   SYMBOL    NUMBER   ---       WMAPACKNUMH
      000000B7H   SYMBOL    NUMBER   ---       WMAPACKNUML
      000000B6H   SYMBOL    NUMBER   ---       WMAPACKNUMM
      000000B8H   SYMBOL    NUMBER   ---       WMAPACKSIZEH
      000000BAH   SYMBOL    NUMBER   ---       WMAPACKSIZEL
      000000B9H   SYMBOL    NUMBER   ---       WMAPACKSIZEM
      000000AFH   SYMBOL    NUMBER   ---       WMATTIMEH
      000000B0H   SYMBOL    NUMBER   ---       WMATTIMEM
      000000B1H   SYMBOL    NUMBER   ---       WMATTIMES

      00FFB800H   BLOCK     ECODE    NEAR LAB  LVL=0
      00FFB800H   LINE      ECODE    ---       #55
      00FFB804H   LINE      ECODE    ---       #56
      00FFB805H   LINE      ECODE    ---       #59
      00FFB809H   LINE      ECODE    ---       #60
      00FFB80AH   LINE      ECODE    ---       #63
      00FFB80EH   LINE      ECODE    ---       #64
      00FFB80FH   LINE      ECODE    ---       #67
      00FFB813H   LINE      ECODE    ---       #68
      00FFB814H   LINE      ECODE    ---       #71
      00FFB818H   LINE      ECODE    ---       #72
      00FFB819H   LINE      ECODE    ---       #74
      00FFB81DH   LINE      ECODE    ---       #75
      00FFB81EH   LINE      ECODE    ---       #77
      00FFB822H   LINE      ECODE    ---       #78
      00FFB823H   LINE      ECODE    ---       #91
      00FFB827H   LINE      ECODE    ---       #92
      00FFB828H   LINE      ECODE    ---       #95
      00FFB82CH   LINE      ECODE    ---       #96
      00FFB82DH   LINE      ECODE    ---       #99
      00FFB831H   LINE      ECODE    ---       #100
      00FFB832H   LINE      ECODE    ---       #103
      00FFB836H   LINE      ECODE    ---       #104
      00FFB837H   LINE      ECODE    ---       #107
      00FFB83BH   LINE      ECODE    ---       #108
      00FFB83CH   LINE      ECODE    ---       #111
      00FFB840H   LINE      ECODE    ---       #112
      00FFB841H   LINE      ECODE    ---       #115
      00FFB845H   LINE      ECODE    ---       #116
L251 LINKER/LOCATER V4.25                                                             12/13/2018  16:28:37  PAGE 90


      00FFB846H   LINE      ECODE    ---       #119
      00FFB84AH   LINE      ECODE    ---       #120
      00FFB84BH   LINE      ECODE    ---       #123
      00FFB84FH   LINE      ECODE    ---       #124
      00FFB851H   LINE      ECODE    ---       #125
      00FFB853H   LINE      ECODE    ---       #126
      00FFB854H   LINE      ECODE    ---       #127
      00FFB855H   LINE      ECODE    ---       #129
      00FFB857H   LINE      ECODE    ---       #130
      00FFB859H   LINE      ECODE    ---       #131
      00FFB85DH   LINE      ECODE    ---       #132
      00FFB860H   LINE      ECODE    ---       #133
      00FFB863H   LINE      ECODE    ---       #134
      00FFB865H   LINE      ECODE    ---       #135
      00FFB867H   LINE      ECODE    ---       #136
      00FFB869H   LINE      ECODE    ---       #137
      00FFB86AH   LINE      ECODE    ---       #139
      00FFB86CH   LINE      ECODE    ---       #140
      00FFB86EH   LINE      ECODE    ---       #141
      00FFB870H   LINE      ECODE    ---       #142
      00FFB871H   LINE      ECODE    ---       #145
      00FFB873H   LINE      ECODE    ---       #146
      00FFB875H   LINE      ECODE    ---       #147
      00FFB877H   LINE      ECODE    ---       #149
      00FFB879H   LINE      ECODE    ---       #150
      00FFB87CH   LINE      ECODE    ---       #151
      00FFB87EH   LINE      ECODE    ---       #153
      00FFB880H   LINE      ECODE    ---       #154
      00FFB882H   LINE      ECODE    ---       #155
      00FFB883H   LINE      ECODE    ---       #158
      00FFB885H   LINE      ECODE    ---       #159
      00FFB889H   LINE      ECODE    ---       #160
      00FFB88BH   LINE      ECODE    ---       #161
      00FFB88DH   LINE      ECODE    ---       #162
      00FFB88FH   LINE      ECODE    ---       #163
      00FFB891H   LINE      ECODE    ---       #164
      00FFB893H   LINE      ECODE    ---       #165
      00FFB895H   LINE      ECODE    ---       #166
      00FFB897H   LINE      ECODE    ---       #167
      00FFB899H   LINE      ECODE    ---       #168
      00FFB89BH   LINE      ECODE    ---       #169
      00FFB89DH   LINE      ECODE    ---       #171
      00FFB8A1H   LINE      ECODE    ---       #172
      00FFB8A3H   LINE      ECODE    ---       #173
      00FFB8A7H   LINE      ECODE    ---       #174
      00FFB8A9H   LINE      ECODE    ---       #175
      00FFB8ABH   LINE      ECODE    ---       #176
      00FFB8AEH   LINE      ECODE    ---       #177
      00FFB8B0H   LINE      ECODE    ---       #178
      00FFB8B2H   LINE      ECODE    ---       #179
      00FFB8B5H   LINE      ECODE    ---       #181
      00FFB8B9H   LINE      ECODE    ---       #182
      00FFB8BBH   LINE      ECODE    ---       #183
      00FFB8BDH   LINE      ECODE    ---       #184
      00FFB8BFH   LINE      ECODE    ---       #186
      00FFB8C1H   LINE      ECODE    ---       #187
      00FFB8C3H   LINE      ECODE    ---       #189
      00FFB8C6H   LINE      ECODE    ---       #190
      00FFB8C8H   LINE      ECODE    ---       #191
      00FFB8CAH   LINE      ECODE    ---       #192
      00FFB8CDH   LINE      ECODE    ---       #193
      00FFB8CFH   LINE      ECODE    ---       #194
      00FFB8D1H   LINE      ECODE    ---       #196
      00FFB8D5H   LINE      ECODE    ---       #197
      00FFB8D7H   LINE      ECODE    ---       #198
L251 LINKER/LOCATER V4.25                                                             12/13/2018  16:28:37  PAGE 91


      00FFB8D9H   LINE      ECODE    ---       #200
      00FFB8DBH   LINE      ECODE    ---       #201
      00FFB8DDH   LINE      ECODE    ---       #202
      00FFB8DEH   LINE      ECODE    ---       #205
      00FFB8E0H   LINE      ECODE    ---       #206
      00FFB8E2H   LINE      ECODE    ---       #207
      00FFB8E4H   LINE      ECODE    ---       #209
      00FFB8E7H   LINE      ECODE    ---       #210
      00FFB8EAH   LINE      ECODE    ---       #211
      00FFB8ECH   LINE      ECODE    ---       #212
      00FFB8EEH   LINE      ECODE    ---       #214
      00FFB8F2H   LINE      ECODE    ---       #215
      00FFB8F4H   LINE      ECODE    ---       #216
      00FFB8F6H   LINE      ECODE    ---       #217
      00FFB8FAH   LINE      ECODE    ---       #218
      00FFB8FCH   LINE      ECODE    ---       #219
      00FFB8FEH   LINE      ECODE    ---       #220
      00FFB900H   LINE      ECODE    ---       #221
      00FFB902H   LINE      ECODE    ---       #222
      00FFB903H   LINE      ECODE    ---       #225
      00FFB905H   LINE      ECODE    ---       #227
      00FFB907H   LINE      ECODE    ---       #228
      00FFB90AH   LINE      ECODE    ---       #229
      00FFB90CH   LINE      ECODE    ---       #230
      00FFB90EH   LINE      ECODE    ---       #231
      00FFB910H   LINE      ECODE    ---       #232
      00FFB911H   LINE      ECODE    ---       #234
      00FFB913H   LINE      ECODE    ---       #236
      00FFB915H   LINE      ECODE    ---       #237
      00FFB917H   LINE      ECODE    ---       #238
      00FFB919H   LINE      ECODE    ---       #239
      00FFB91AH   LINE      ECODE    ---       #242
      00FFB91CH   LINE      ECODE    ---       #243
      00FFB91EH   LINE      ECODE    ---       #245
      00FFB922H   LINE      ECODE    ---       #246
      00FFB926H   LINE      ECODE    ---       #248
      00FFB929H   LINE      ECODE    ---       #249
      00FFB92CH   LINE      ECODE    ---       #250
      00FFB92EH   LINE      ECODE    ---       #251
      00FFB930H   LINE      ECODE    ---       #252
      00FFB931H   LINE      ECODE    ---       #255
      00FFB935H   LINE      ECODE    ---       #256
      00FFB939H   LINE      ECODE    ---       #258
      00FFB93CH   LINE      ECODE    ---       #259
      00FFB93EH   LINE      ECODE    ---       #260
      00FFB941H   LINE      ECODE    ---       #261
      00FFB943H   LINE      ECODE    ---       #263
      00FFB946H   LINE      ECODE    ---       #264
      00FFB947H   LINE      ECODE    ---       #267
      00FFB949H   LINE      ECODE    ---       #268
      00FFB94BH   LINE      ECODE    ---       #270
      00FFB94DH   LINE      ECODE    ---       #271
      00FFB94FH   LINE      ECODE    ---       #272
      00FFB952H   LINE      ECODE    ---       #273
      00FFB954H   LINE      ECODE    ---       #274
      00FFB956H   LINE      ECODE    ---       #276
      00FFB958H   LINE      ECODE    ---       #277
      00FFB95AH   LINE      ECODE    ---       #278
      00FFB95DH   LINE      ECODE    ---       #279
      00FFB95FH   LINE      ECODE    ---       #280
      00FFB961H   LINE      ECODE    ---       #281
      00FFB964H   LINE      ECODE    ---       #282
      00FFB966H   LINE      ECODE    ---       #283
      00FFB967H   LINE      ECODE    ---       #286
      00FFB969H   LINE      ECODE    ---       #287
L251 LINKER/LOCATER V4.25                                                             12/13/2018  16:28:37  PAGE 92


      00FFB96BH   LINE      ECODE    ---       #288
      00FFB96FH   LINE      ECODE    ---       #289
      00FFB973H   LINE      ECODE    ---       #290
      00FFB975H   LINE      ECODE    ---       #291
      00FFB977H   LINE      ECODE    ---       #293
      00FFB979H   LINE      ECODE    ---       #295
      00FFB97BH   LINE      ECODE    ---       #296
      00FFB97DH   LINE      ECODE    ---       #297
      00FFB980H   LINE      ECODE    ---       #298
      00FFB982H   LINE      ECODE    ---       #299
      00FFB984H   LINE      ECODE    ---       #301
      00FFB986H   LINE      ECODE    ---       #302
      00FFB988H   LINE      ECODE    ---       #303
      00FFB98BH   LINE      ECODE    ---       #304
      00FFB98DH   LINE      ECODE    ---       #305
      00FFB98FH   LINE      ECODE    ---       #306
      00FFB991H   LINE      ECODE    ---       #307
      00FFB993H   LINE      ECODE    ---       #308
      00FFB996H   LINE      ECODE    ---       #309
      00FFB99AH   LINE      ECODE    ---       #310
      00FFB99CH   LINE      ECODE    ---       #311
      00FFB9A0H   LINE      ECODE    ---       #312
      00FFB9A2H   LINE      ECODE    ---       #314
      00FFB9A5H   LINE      ECODE    ---       #315
      00FFB9A7H   LINE      ECODE    ---       #317
      00FFB9A8H   LINE      ECODE    ---       #318
      00FFB9AAH   LINE      ECODE    ---       #319
      00FFB9ACH   LINE      ECODE    ---       #320
      00FFB9AFH   LINE      ECODE    ---       #322
      00FFB9B1H   LINE      ECODE    ---       #323
      00FFB9B2H   LINE      ECODE    ---       #326
      00FFB9B4H   LINE      ECODE    ---       #327
      00FFB9B6H   LINE      ECODE    ---       #329
      00FFB9B8H   LINE      ECODE    ---       #331
      00FFB9BAH   LINE      ECODE    ---       #332
      00FFB9BCH   LINE      ECODE    ---       #333
      00FFB9BFH   LINE      ECODE    ---       #334
      00FFB9C1H   LINE      ECODE    ---       #335
      00FFB9C2H   LINE      ECODE    ---       #338
      00FFB9C4H   LINE      ECODE    ---       #339
      00FFB9C6H   LINE      ECODE    ---       #341
      00FFB9C9H   LINE      ECODE    ---       #342
      00FFB9CBH   LINE      ECODE    ---       #343
      00FFB9CDH   LINE      ECODE    ---       #344
      00FFB9CFH   LINE      ECODE    ---       #345
      00FFB9D1H   LINE      ECODE    ---       #346
      00FFB9D4H   LINE      ECODE    ---       #347
      00FFB9D6H   LINE      ECODE    ---       #348
      00FFB9D8H   LINE      ECODE    ---       #350
      00FFB9DCH   LINE      ECODE    ---       #351
      00FFB9DEH   LINE      ECODE    ---       #352
      00FFB9E0H   LINE      ECODE    ---       #353
      00FFB9E4H   LINE      ECODE    ---       #354
      00FFB9E6H   LINE      ECODE    ---       #355
      00FFB9E8H   LINE      ECODE    ---       #356
      00FFB9EAH   LINE      ECODE    ---       #357
      00FFB9EBH   LINE      ECODE    ---       #360
      00FFB9EDH   LINE      ECODE    ---       #361
      00FFB9EFH   LINE      ECODE    ---       #363
      00FFB9F2H   LINE      ECODE    ---       #364
      00FFB9F4H   LINE      ECODE    ---       #365
      00FFB9F8H   LINE      ECODE    ---       #366
      00FFB9FAH   LINE      ECODE    ---       #367
      00FFB9FEH   LINE      ECODE    ---       #368
      00FFBA00H   LINE      ECODE    ---       #370
L251 LINKER/LOCATER V4.25                                                             12/13/2018  16:28:37  PAGE 93


      00FFBA01H   LINE      ECODE    ---       #371
      00FFBA02H   LINE      ECODE    ---       #373
      00FFBA04H   LINE      ECODE    ---       #374
      00FFBA06H   LINE      ECODE    ---       #376
      00FFBA09H   LINE      ECODE    ---       #377
      00FFBA0CH   LINE      ECODE    ---       #378
      00FFBA0EH   LINE      ECODE    ---       #379
      00FFBA10H   LINE      ECODE    ---       #380
      00FFBA12H   LINE      ECODE    ---       #381
      00FFBA14H   LINE      ECODE    ---       #382
      00FFBA16H   LINE      ECODE    ---       #383
      00FFBA17H   LINE      ECODE    ---       #385
      00FFBA19H   LINE      ECODE    ---       #386
      00FFBA1AH   LINE      ECODE    ---       #389
      00FFBA1CH   LINE      ECODE    ---       #390
      00FFBA1EH   LINE      ECODE    ---       #391
      00FFBA20H   LINE      ECODE    ---       #393
      00FFBA22H   LINE      ECODE    ---       #395
      00FFBA25H   LINE      ECODE    ---       #396
      00FFBA27H   LINE      ECODE    ---       #398
      00FFBA2AH   LINE      ECODE    ---       #399
      00FFBA2CH   LINE      ECODE    ---       #400
      00FFBA2EH   LINE      ECODE    ---       #401
      00FFBA2FH   LINE      ECODE    ---       #403
      00FFBA31H   LINE      ECODE    ---       #404
      00FFBA33H   LINE      ECODE    ---       #405
      00FFBA35H   LINE      ECODE    ---       #406
      00FFBA37H   LINE      ECODE    ---       #407
      00FFBA39H   LINE      ECODE    ---       #408
      00FFBA3AH   LINE      ECODE    ---       #411
      00FFBA3CH   LINE      ECODE    ---       #412
      00FFBA3EH   LINE      ECODE    ---       #413
      00FFBA41H   LINE      ECODE    ---       #414
      00FFBA43H   LINE      ECODE    ---       #415
      00FFBA47H   LINE      ECODE    ---       #416
      00FFBA49H   LINE      ECODE    ---       #418
      00FFBA4BH   LINE      ECODE    ---       #419
      00FFBA4EH   LINE      ECODE    ---       #420
      00FFBA50H   LINE      ECODE    ---       #421
      00FFBA54H   LINE      ECODE    ---       #422
      00FFBA56H   LINE      ECODE    ---       #423
      00FFBA58H   LINE      ECODE    ---       #424
      00FFBA5CH   LINE      ECODE    ---       #425
      00FFBA5EH   LINE      ECODE    ---       #426
      00FFBA60H   LINE      ECODE    ---       #428
      00FFBA62H   LINE      ECODE    ---       #430
      00FFBA65H   LINE      ECODE    ---       #431
      00FFBA69H   LINE      ECODE    ---       #432
      00FFBA6BH   LINE      ECODE    ---       #434
      00FFBA6CH   LINE      ECODE    ---       #437
      00FFBA6EH   LINE      ECODE    ---       #439
      00FFBA70H   LINE      ECODE    ---       #440
      00FFBA72H   LINE      ECODE    ---       #441
      00FFBA74H   LINE      ECODE    ---       #442
      00FFBA76H   LINE      ECODE    ---       #443
      00FFBA78H   LINE      ECODE    ---       #444
      00FFBA7AH   LINE      ECODE    ---       #445
      00FFBA7CH   LINE      ECODE    ---       #446
      00FFBA7EH   LINE      ECODE    ---       #447
      00FFBA7FH   LINE      ECODE    ---       #449
      00FFBA81H   LINE      ECODE    ---       #450
      00FFBA83H   LINE      ECODE    ---       #451
      00FFBA85H   LINE      ECODE    ---       #453
      00FFBA87H   LINE      ECODE    ---       #454
      00FFBA89H   LINE      ECODE    ---       #455
L251 LINKER/LOCATER V4.25                                                             12/13/2018  16:28:37  PAGE 94


      00FFBA8BH   LINE      ECODE    ---       #456
      00FFBA8DH   LINE      ECODE    ---       #458
      00FFBA8FH   LINE      ECODE    ---       #459
      00FFBA91H   LINE      ECODE    ---       #460
      00FFBA93H   LINE      ECODE    ---       #461
      00FFBA95H   LINE      ECODE    ---       #463
      00FFBA96H   LINE      ECODE    ---       #464
      00FFBA98H   LINE      ECODE    ---       #465
      00FFBA9AH   LINE      ECODE    ---       #466
      00FFBA9CH   LINE      ECODE    ---       #467
      00FFBA9EH   LINE      ECODE    ---       #468
      00FFBA9FH   LINE      ECODE    ---       #470
      00FFBAA1H   LINE      ECODE    ---       #471
      00FFBAA3H   LINE      ECODE    ---       #472
      00FFBAA5H   LINE      ECODE    ---       #473
      00FFBAA7H   LINE      ECODE    ---       #475
      00FFBAA9H   LINE      ECODE    ---       #476
      00FFBAABH   LINE      ECODE    ---       #477
      00FFBAADH   LINE      ECODE    ---       #478
      00FFBAAFH   LINE      ECODE    ---       #480
      00FFBAB1H   LINE      ECODE    ---       #481
      00FFBAB3H   LINE      ECODE    ---       #483
      00FFBAB4H   LINE      ECODE    ---       #484
      00FFBAB6H   LINE      ECODE    ---       #485
      00FFBAB8H   LINE      ECODE    ---       #486
      00FFBABAH   LINE      ECODE    ---       #487
      00FFBABCH   LINE      ECODE    ---       #488
      00FFBABEH   LINE      ECODE    ---       #489
      00FFBABFH   LINE      ECODE    ---       #492
      00FFBAC1H   LINE      ECODE    ---       #493
      00FFBAC3H   LINE      ECODE    ---       #494
      00FFBAC6H   LINE      ECODE    ---       #495
      00FFBAC8H   LINE      ECODE    ---       #496
      00FFBACAH   LINE      ECODE    ---       #497
      00FFBACCH   LINE      ECODE    ---       #498
      00FFBACEH   LINE      ECODE    ---       #500
      00FFBAD0H   LINE      ECODE    ---       #501
      00FFBAD3H   LINE      ECODE    ---       #502
      00FFBAD5H   LINE      ECODE    ---       #503
      00FFBAD7H   LINE      ECODE    ---       #504
      00FFBAD9H   LINE      ECODE    ---       #505
      00FFBADBH   LINE      ECODE    ---       #506
      00FFBADFH   LINE      ECODE    ---       #507
      00FFBAE1H   LINE      ECODE    ---       #508
      00FFBAE3H   LINE      ECODE    ---       #509
      00FFBAE5H   LINE      ECODE    ---       #510
      00FFBAE7H   LINE      ECODE    ---       #512
      00FFBAEBH   LINE      ECODE    ---       #514
      00FFBAEEH   LINE      ECODE    ---       #515
      00FFBAF0H   LINE      ECODE    ---       #516
      00FFBAF2H   LINE      ECODE    ---       #517
      00FFBAF4H   LINE      ECODE    ---       #519
      00FFBAF5H   LINE      ECODE    ---       #522
      00FFBAF7H   LINE      ECODE    ---       #523
      00FFBAFAH   LINE      ECODE    ---       #524
      00FFBAFCH   LINE      ECODE    ---       #525
      00FFBAFFH   LINE      ECODE    ---       #526
      00FFBB01H   LINE      ECODE    ---       #527
      00FFBB04H   LINE      ECODE    ---       #528
      00FFBB06H   LINE      ECODE    ---       #529
      00FFBB07H   LINE      ECODE    ---       #530
      00FFBB08H   LINE      ECODE    ---       #531
      00FFBB09H   LINE      ECODE    ---       #532
      00FFBB0CH   LINE      ECODE    ---       #533
      00FFBB0EH   LINE      ECODE    ---       #534
L251 LINKER/LOCATER V4.25                                                             12/13/2018  16:28:37  PAGE 95


      00FFBB10H   LINE      ECODE    ---       #535
      00FFBB11H   LINE      ECODE    ---       #536
      00FFBB14H   LINE      ECODE    ---       #537
      00FFBB15H   LINE      ECODE    ---       #538
      00FFBB16H   LINE      ECODE    ---       #539
      00FFBB17H   LINE      ECODE    ---       #542
      00FFBB19H   LINE      ECODE    ---       #544
      00FFBB1BH   LINE      ECODE    ---       #545
      00FFBB1DH   LINE      ECODE    ---       #546
      00FFBB1FH   LINE      ECODE    ---       #547
      00FFBB21H   LINE      ECODE    ---       #549
      00FFBB24H   LINE      ECODE    ---       #550
      00FFBB27H   LINE      ECODE    ---       #551
      00FFBB29H   LINE      ECODE    ---       #552
      00FFBB2BH   LINE      ECODE    ---       #553
      00FFBB2DH   LINE      ECODE    ---       #554
      00FFBB2FH   LINE      ECODE    ---       #556
      00FFBB31H   LINE      ECODE    ---       #557
      00FFBB34H   LINE      ECODE    ---       #558
      00FFBB37H   LINE      ECODE    ---       #560
      00FFBB38H   LINE      ECODE    ---       #563
      00FFBB3AH   LINE      ECODE    ---       #565
      00FFBB3CH   LINE      ECODE    ---       #566
      00FFBB40H   LINE      ECODE    ---       #567
      00FFBB42H   LINE      ECODE    ---       #568
      00FFBB44H   LINE      ECODE    ---       #569
      00FFBB46H   LINE      ECODE    ---       #570
      00FFBB48H   LINE      ECODE    ---       #571
      00FFBB4BH   LINE      ECODE    ---       #572
      00FFBB4EH   LINE      ECODE    ---       #573
      00FFBB52H   LINE      ECODE    ---       #574
      00FFBB56H   LINE      ECODE    ---       #575
      00FFBB58H   LINE      ECODE    ---       #577
      00FFBB5BH   LINE      ECODE    ---       #578
      00FFBB5EH   LINE      ECODE    ---       #579
      00FFBB62H   LINE      ECODE    ---       #580
      00FFBB66H   LINE      ECODE    ---       #582
      00FFBB68H   LINE      ECODE    ---       #583
      00FFBB6AH   LINE      ECODE    ---       #585
      00FFBB6BH   LINE      ECODE    ---       #589
      00FFBB6DH   LINE      ECODE    ---       #591
      00FFBB6FH   LINE      ECODE    ---       #592
      00FFBB71H   LINE      ECODE    ---       #593
      00FFBB73H   LINE      ECODE    ---       #594
      00FFBB75H   LINE      ECODE    ---       #595
      00FFBB78H   LINE      ECODE    ---       #596
      00FFBB7BH   LINE      ECODE    ---       #597
      00FFBB7DH   LINE      ECODE    ---       #598
      00FFBB81H   LINE      ECODE    ---       #599
      00FFBB83H   LINE      ECODE    ---       #601
      00FFBB86H   LINE      ECODE    ---       #602
      00FFBB89H   LINE      ECODE    ---       #603
      00FFBB8DH   LINE      ECODE    ---       #604
      00FFBB8FH   LINE      ECODE    ---       #605
      00FFBB91H   LINE      ECODE    ---       #606
      00FFBB93H   LINE      ECODE    ---       #608
      00FFBB94H   LINE      ECODE    ---       #611
      00FFBB96H   LINE      ECODE    ---       #613
      00FFBB98H   LINE      ECODE    ---       #614
      00FFBB9CH   LINE      ECODE    ---       #615
      00FFBB9EH   LINE      ECODE    ---       #616
      00FFBBA0H   LINE      ECODE    ---       #617
      00FFBBA2H   LINE      ECODE    ---       #618
      00FFBBA5H   LINE      ECODE    ---       #619
      00FFBBA8H   LINE      ECODE    ---       #620
L251 LINKER/LOCATER V4.25                                                             12/13/2018  16:28:37  PAGE 96


      00FFBBAAH   LINE      ECODE    ---       #621
      00FFBBACH   LINE      ECODE    ---       #622
      00FFBBB0H   LINE      ECODE    ---       #624
      00FFBBB3H   LINE      ECODE    ---       #625
      00FFBBB6H   LINE      ECODE    ---       #626
      00FFBBB8H   LINE      ECODE    ---       #627
      00FFBBBCH   LINE      ECODE    ---       #628
      00FFBBBEH   LINE      ECODE    ---       #629
      00FFBBC0H   LINE      ECODE    ---       #631
      00FFBBC1H   LINE      ECODE    ---       #634
      00FFBBC3H   LINE      ECODE    ---       #635
      00FFBBC5H   LINE      ECODE    ---       #636
      00FFBBC7H   LINE      ECODE    ---       #637
      00FFBBC9H   LINE      ECODE    ---       #638
      00FFBBCBH   LINE      ECODE    ---       #639
      00FFBBCDH   LINE      ECODE    ---       #640
      00FFBBCFH   LINE      ECODE    ---       #641
      00FFBBD1H   LINE      ECODE    ---       #642
      00FFBBD2H   LINE      ECODE    ---       #645
      00FFBBD4H   LINE      ECODE    ---       #646
      00FFBBD6H   LINE      ECODE    ---       #647
      00FFBBD8H   LINE      ECODE    ---       #648
      00FFBBDAH   LINE      ECODE    ---       #649
      00FFBBDBH   LINE      ECODE    ---       #652
      00FFBBDEH   LINE      ECODE    ---       #653
      00FFBBE0H   LINE      ECODE    ---       #654
      00FFBBE2H   LINE      ECODE    ---       #655
      00FFBBE4H   LINE      ECODE    ---       #656
      00FFBBE7H   LINE      ECODE    ---       #657
      00FFBBEAH   LINE      ECODE    ---       #658
      00FFBBECH   LINE      ECODE    ---       #659
      00FFBBEDH   LINE      ECODE    ---       #661
      00FFBBF0H   LINE      ECODE    ---       #662
      00FFBBF2H   LINE      ECODE    ---       #663
      00FFBBF4H   LINE      ECODE    ---       #664
      00FFBBF6H   LINE      ECODE    ---       #665
      00FFBBF9H   LINE      ECODE    ---       #666
      00FFBBFCH   LINE      ECODE    ---       #667
      00FFBBFEH   LINE      ECODE    ---       #668
      00FFBBFFH   LINE      ECODE    ---       #670
      00FFBC03H   LINE      ECODE    ---       #671
      00FFBC05H   LINE      ECODE    ---       #672
      00FFBC07H   LINE      ECODE    ---       #673
      00FFBC0AH   LINE      ECODE    ---       #674
      00FFBC0DH   LINE      ECODE    ---       #675
      00FFBC0FH   LINE      ECODE    ---       #676
      00FFBC10H   LINE      ECODE    ---       #678
      00FFBC14H   LINE      ECODE    ---       #679
      00FFBC16H   LINE      ECODE    ---       #680
      00FFBC18H   LINE      ECODE    ---       #681
      00FFBC1BH   LINE      ECODE    ---       #682
      00FFBC1EH   LINE      ECODE    ---       #683
      00FFBC20H   LINE      ECODE    ---       #684
      00FFBC21H   LINE      ECODE    ---       #686
      00FFBC25H   LINE      ECODE    ---       #687
      00FFBC26H   LINE      ECODE    ---       #703
      00FFBC28H   LINE      ECODE    ---       #704
      00FFBC2CH   LINE      ECODE    ---       #705
      00FFBC30H   LINE      ECODE    ---       #706
      00FFBC33H   LINE      ECODE    ---       #707
      00FFBC35H   LINE      ECODE    ---       #708
      00FFBC37H   LINE      ECODE    ---       #710
      00FFBC3AH   LINE      ECODE    ---       #711
      00FFBC3DH   LINE      ECODE    ---       #713
      00FFBC3FH   LINE      ECODE    ---       #714
L251 LINKER/LOCATER V4.25                                                             12/13/2018  16:28:37  PAGE 97


      00FFBC41H   LINE      ECODE    ---       #715
      00FFBC44H   LINE      ECODE    ---       #716
      00FFBC46H   LINE      ECODE    ---       #718
      00FFBC49H   LINE      ECODE    ---       #719
      00FFBC4DH   LINE      ECODE    ---       #720
      00FFBC51H   LINE      ECODE    ---       #721
      00FFBC53H   LINE      ECODE    ---       #722
      00FFBC55H   LINE      ECODE    ---       #723
      00FFBC59H   LINE      ECODE    ---       #724
      00FFBC5BH   LINE      ECODE    ---       #726
      00FFBC5DH   LINE      ECODE    ---       #727
      ---         BLOCKEND  ---      ---       LVL=0



*** WARNING L9: EMPTY SEGMENTS ENCOUNTERED

Program Size: data=8.0 edata+hdata=116 xdata=0 const=37 code=2731
L251 RUN COMPLETE.  1 WARNING(S),  0 ERROR(S)
